
/home/dwpark/work/spuos-secure-v2/applications/abm_v3/bin/GENERIC_M2354_KPQC/abm_v3.elf:     file format elf32-littlearm

Sections:
Idx Name          Size      VMA       LMA       File off  Algn
  0 .text         0000022c  00000000  00000000  00001000  2**2
                  CONTENTS, ALLOC, LOAD, READONLY, CODE
  1 .privileged_functions 00000014  0000022c  0000022c  0000122c  2**0
                  ALLOC
  2 .freertos_system_calls 00000000  00000240  00000240  00006d1c  2**0
                  CONTENTS
  3 .text         000058c0  00000240  00000240  00001240  2**2
                  CONTENTS, ALLOC, LOAD, READONLY, CODE
  4 .ARM.exidx    00000008  00005b00  00005b00  00006b00  2**2
                  CONTENTS, ALLOC, LOAD, READONLY, DATA
  5 .copy.table   0000000c  00005b08  00005b08  00006b08  2**0
                  CONTENTS, ALLOC, LOAD, DATA
  6 .zero.table   00000008  00005b14  00005b14  00006b14  2**0
                  CONTENTS, ALLOC, LOAD, DATA
  7 ._vtor        00000400  20000000  20000000  00007000  2**2
                  ALLOC
  8 ._stack       00000800  20000400  20000400  00007000  2**0
                  ALLOC
  9 .data         0000011c  20000c00  00005b1c  00006c00  2**2
                  CONTENTS, ALLOC, LOAD, DATA
 10 .bss          0000239c  20000d1c  00005c38  00006d1c  2**2
                  ALLOC
 11 .ARM.attributes 0000002c  00000000  00000000  00006d1c  2**0
                  CONTENTS, READONLY
 12 .comment      00000046  00000000  00000000  00006d48  2**0
                  CONTENTS, READONLY
 13 .debug_line_str 00000197  00000000  00000000  00006d8e  2**0
                  CONTENTS, READONLY, DEBUGGING, OCTETS
 14 .debug_frame  00000478  00000000  00000000  00006f28  2**2
                  CONTENTS, READONLY, DEBUGGING, OCTETS

Disassembly of section .text:

00000000 <__Vectors>:
   0:	20000c00 			@ <UNDEFINED> instruction: 20000c00
   4:	00000605 			@ <UNDEFINED> instruction: 00000605
   8:	0000064f 			@ <UNDEFINED> instruction: 0000064f
   c:	00000669 			@ <UNDEFINED> instruction: 00000669
	...
  2c:	0000064f 			@ <UNDEFINED> instruction: 0000064f
	...
  38:	0000064f 			@ <UNDEFINED> instruction: 0000064f
  3c:	0000064f 			@ <UNDEFINED> instruction: 0000064f
  40:	0000064f 			@ <UNDEFINED> instruction: 0000064f
  44:	0000064f 			@ <UNDEFINED> instruction: 0000064f
  48:	0000064f 			@ <UNDEFINED> instruction: 0000064f
  4c:	0000064f 			@ <UNDEFINED> instruction: 0000064f
  50:	0000064f 			@ <UNDEFINED> instruction: 0000064f
  54:	0000064f 			@ <UNDEFINED> instruction: 0000064f
  58:	0000064f 			@ <UNDEFINED> instruction: 0000064f
  5c:	0000064f 			@ <UNDEFINED> instruction: 0000064f
  60:	0000064f 			@ <UNDEFINED> instruction: 0000064f
  64:	0000064f 			@ <UNDEFINED> instruction: 0000064f
  68:	0000064f 			@ <UNDEFINED> instruction: 0000064f
  6c:	0000064f 			@ <UNDEFINED> instruction: 0000064f
  70:	0000064f 			@ <UNDEFINED> instruction: 0000064f
  74:	0000064f 			@ <UNDEFINED> instruction: 0000064f
  78:	0000064f 			@ <UNDEFINED> instruction: 0000064f
  7c:	0000064f 			@ <UNDEFINED> instruction: 0000064f
  80:	0000064f 			@ <UNDEFINED> instruction: 0000064f
  84:	0000064f 			@ <UNDEFINED> instruction: 0000064f
  88:	0000064f 			@ <UNDEFINED> instruction: 0000064f
  8c:	0000064f 			@ <UNDEFINED> instruction: 0000064f
  90:	0000064f 			@ <UNDEFINED> instruction: 0000064f
  94:	0000064f 			@ <UNDEFINED> instruction: 0000064f
  98:	0000064f 			@ <UNDEFINED> instruction: 0000064f
  9c:	0000064f 			@ <UNDEFINED> instruction: 0000064f
  a0:	0000064f 			@ <UNDEFINED> instruction: 0000064f
  a4:	0000064f 			@ <UNDEFINED> instruction: 0000064f
  a8:	0000064f 			@ <UNDEFINED> instruction: 0000064f
  ac:	0000064f 			@ <UNDEFINED> instruction: 0000064f
  b0:	0000064f 			@ <UNDEFINED> instruction: 0000064f
  b4:	0000064f 			@ <UNDEFINED> instruction: 0000064f
  b8:	0000064f 			@ <UNDEFINED> instruction: 0000064f
  bc:	0000064f 			@ <UNDEFINED> instruction: 0000064f
  c0:	00004475 			@ <UNDEFINED> instruction: 00004475
  c4:	0000064f 			@ <UNDEFINED> instruction: 0000064f
  c8:	0000064f 			@ <UNDEFINED> instruction: 0000064f
  cc:	0000064f 			@ <UNDEFINED> instruction: 0000064f
  d0:	0000064f 			@ <UNDEFINED> instruction: 0000064f
  d4:	0000064f 			@ <UNDEFINED> instruction: 0000064f
  d8:	0000064f 			@ <UNDEFINED> instruction: 0000064f
  dc:	0000064f 			@ <UNDEFINED> instruction: 0000064f
  e0:	0000064f 			@ <UNDEFINED> instruction: 0000064f
  e4:	0000064f 			@ <UNDEFINED> instruction: 0000064f
  e8:	0000064f 			@ <UNDEFINED> instruction: 0000064f
  ec:	0000064f 			@ <UNDEFINED> instruction: 0000064f
  f0:	0000064f 			@ <UNDEFINED> instruction: 0000064f
  f4:	0000064f 			@ <UNDEFINED> instruction: 0000064f
  f8:	0000064f 			@ <UNDEFINED> instruction: 0000064f
  fc:	0000064f 			@ <UNDEFINED> instruction: 0000064f
 100:	0000064f 			@ <UNDEFINED> instruction: 0000064f
 104:	0000064f 			@ <UNDEFINED> instruction: 0000064f
 108:	0000064f 			@ <UNDEFINED> instruction: 0000064f
 10c:	0000064f 			@ <UNDEFINED> instruction: 0000064f
 110:	0000064f 			@ <UNDEFINED> instruction: 0000064f
 114:	0000064f 			@ <UNDEFINED> instruction: 0000064f
 118:	0000064f 			@ <UNDEFINED> instruction: 0000064f
 11c:	0000064f 			@ <UNDEFINED> instruction: 0000064f
 120:	0000064f 			@ <UNDEFINED> instruction: 0000064f
 124:	0000064f 			@ <UNDEFINED> instruction: 0000064f
 128:	0000064f 			@ <UNDEFINED> instruction: 0000064f
 12c:	0000064f 			@ <UNDEFINED> instruction: 0000064f
 130:	0000064f 			@ <UNDEFINED> instruction: 0000064f
 134:	0000064f 			@ <UNDEFINED> instruction: 0000064f
 138:	0000064f 			@ <UNDEFINED> instruction: 0000064f
 13c:	0000064f 			@ <UNDEFINED> instruction: 0000064f
 140:	0000064f 			@ <UNDEFINED> instruction: 0000064f
 144:	0000064f 			@ <UNDEFINED> instruction: 0000064f
 148:	0000064f 			@ <UNDEFINED> instruction: 0000064f
 14c:	0000064f 			@ <UNDEFINED> instruction: 0000064f
 150:	0000064f 			@ <UNDEFINED> instruction: 0000064f
 154:	0000064f 			@ <UNDEFINED> instruction: 0000064f
 158:	0000064f 			@ <UNDEFINED> instruction: 0000064f
 15c:	00004485 			@ <UNDEFINED> instruction: 00004485
 160:	0000064f 			@ <UNDEFINED> instruction: 0000064f
 164:	0000064f 			@ <UNDEFINED> instruction: 0000064f
 168:	0000064f 			@ <UNDEFINED> instruction: 0000064f
 16c:	0000064f 			@ <UNDEFINED> instruction: 0000064f
 170:	0000064f 			@ <UNDEFINED> instruction: 0000064f
 174:	0000064f 			@ <UNDEFINED> instruction: 0000064f
 178:	0000064f 			@ <UNDEFINED> instruction: 0000064f
 17c:	0000064f 			@ <UNDEFINED> instruction: 0000064f
 180:	0000064f 			@ <UNDEFINED> instruction: 0000064f
 184:	0000064f 			@ <UNDEFINED> instruction: 0000064f
 188:	0000064f 			@ <UNDEFINED> instruction: 0000064f
 18c:	0000064f 			@ <UNDEFINED> instruction: 0000064f
 190:	0000064f 			@ <UNDEFINED> instruction: 0000064f
 194:	0000064f 			@ <UNDEFINED> instruction: 0000064f
 198:	0000064f 			@ <UNDEFINED> instruction: 0000064f
 19c:	0000064f 			@ <UNDEFINED> instruction: 0000064f
 1a0:	0000064f 			@ <UNDEFINED> instruction: 0000064f
 1a4:	0000064f 			@ <UNDEFINED> instruction: 0000064f
 1a8:	0000064f 			@ <UNDEFINED> instruction: 0000064f
 1ac:	0000064f 			@ <UNDEFINED> instruction: 0000064f
 1b0:	0000064f 			@ <UNDEFINED> instruction: 0000064f
 1b4:	0000064f 			@ <UNDEFINED> instruction: 0000064f
 1b8:	0000064f 			@ <UNDEFINED> instruction: 0000064f
 1bc:	0000064f 			@ <UNDEFINED> instruction: 0000064f
 1c0:	0000064f 			@ <UNDEFINED> instruction: 0000064f
 1c4:	0000064f 			@ <UNDEFINED> instruction: 0000064f
 1c8:	0000064f 			@ <UNDEFINED> instruction: 0000064f
 1cc:	0000064f 			@ <UNDEFINED> instruction: 0000064f
 1d0:	0000064f 			@ <UNDEFINED> instruction: 0000064f
 1d4:	00004465 			@ <UNDEFINED> instruction: 00004465
 1d8:	0000064f 			@ <UNDEFINED> instruction: 0000064f
 1dc:	0000064f 			@ <UNDEFINED> instruction: 0000064f
 1e0:	0000064f 			@ <UNDEFINED> instruction: 0000064f
 1e4:	0000064f 			@ <UNDEFINED> instruction: 0000064f
 1e8:	0000064f 			@ <UNDEFINED> instruction: 0000064f
 1ec:	0000064f 			@ <UNDEFINED> instruction: 0000064f
 1f0:	0000064f 			@ <UNDEFINED> instruction: 0000064f
 1f4:	0000064f 			@ <UNDEFINED> instruction: 0000064f
 1f8:	0000064f 			@ <UNDEFINED> instruction: 0000064f
 1fc:	0000064f 			@ <UNDEFINED> instruction: 0000064f
 200:	0000064f 			@ <UNDEFINED> instruction: 0000064f
 204:	0000064f 			@ <UNDEFINED> instruction: 0000064f
 208:	0000064f 			@ <UNDEFINED> instruction: 0000064f
 20c:	0000064f 			@ <UNDEFINED> instruction: 0000064f

00000210 <_init>:
 210:	b5f8      	push	{r3, r4, r5, r6, r7, lr}
 212:	46c0      	nop			@ (mov r8, r8)
 214:	bcf8      	pop	{r3, r4, r5, r6, r7}
 216:	bc08      	pop	{r3}
 218:	469e      	mov	lr, r3
 21a:	4770      	bx	lr

0000021c <_fini>:
 21c:	b5f8      	push	{r3, r4, r5, r6, r7, lr}
 21e:	46c0      	nop			@ (mov r8, r8)
 220:	bcf8      	pop	{r3, r4, r5, r6, r7}
 222:	bc08      	pop	{r3}
 224:	469e      	mov	lr, r3
 226:	4770      	bx	lr

00000228 <__EH_FRAME_BEGIN__>:
 228:	00000000 			@ <UNDEFINED> instruction: 00000000

Disassembly of section .text:

00000240 <deregister_tm_clones>:
     240:	f640 501c 	movw	r0, #3356	@ 0xd1c
     244:	f640 531c 	movw	r3, #3356	@ 0xd1c
     248:	f2c2 0000 	movt	r0, #8192	@ 0x2000
     24c:	f2c2 0300 	movt	r3, #8192	@ 0x2000
     250:	b510      	push	{r4, lr}
     252:	4283      	cmp	r3, r0
     254:	d005      	beq.n	262 <deregister_tm_clones+0x22>
     256:	f240 0300 	movw	r3, #0
     25a:	f2c0 0300 	movt	r3, #0
     25e:	b103      	cbz	r3, 262 <deregister_tm_clones+0x22>
     260:	4798      	blx	r3
     262:	bd10      	pop	{r4, pc}

00000264 <register_tm_clones>:
     264:	f640 501c 	movw	r0, #3356	@ 0xd1c
     268:	f640 531c 	movw	r3, #3356	@ 0xd1c
     26c:	f2c2 0000 	movt	r0, #8192	@ 0x2000
     270:	f2c2 0300 	movt	r3, #8192	@ 0x2000
     274:	1a1b      	subs	r3, r3, r0
     276:	109a      	asrs	r2, r3, #2
     278:	0fd9      	lsrs	r1, r3, #31
     27a:	1889      	adds	r1, r1, r2
     27c:	1049      	asrs	r1, r1, #1
     27e:	b510      	push	{r4, lr}
     280:	b129      	cbz	r1, 28e <register_tm_clones+0x2a>
     282:	f240 0300 	movw	r3, #0
     286:	f2c0 0300 	movt	r3, #0
     28a:	b103      	cbz	r3, 28e <register_tm_clones+0x2a>
     28c:	4798      	blx	r3
     28e:	bd10      	pop	{r4, pc}

00000290 <__do_global_dtors_aux>:
     290:	b510      	push	{r4, lr}
     292:	f640 541c 	movw	r4, #3356	@ 0xd1c
     296:	f2c2 0400 	movt	r4, #8192	@ 0x2000
     29a:	7823      	ldrb	r3, [r4, #0]
     29c:	b973      	cbnz	r3, 2bc <__do_global_dtors_aux+0x2c>
     29e:	f7ff ffcf 	bl	240 <deregister_tm_clones>
     2a2:	f240 0300 	movw	r3, #0
     2a6:	f2c0 0300 	movt	r3, #0
     2aa:	b12b      	cbz	r3, 2b8 <__do_global_dtors_aux+0x28>
     2ac:	f240 2028 	movw	r0, #552	@ 0x228
     2b0:	f2c0 0000 	movt	r0, #0
     2b4:	e000      	b.n	2b8 <__do_global_dtors_aux+0x28>
     2b6:	bf00      	nop
     2b8:	2301      	movs	r3, #1
     2ba:	7023      	strb	r3, [r4, #0]
     2bc:	bd10      	pop	{r4, pc}
     2be:	46c0      	nop			@ (mov r8, r8)

000002c0 <frame_dummy>:
     2c0:	f240 0300 	movw	r3, #0
     2c4:	f2c0 0300 	movt	r3, #0
     2c8:	b510      	push	{r4, lr}
     2ca:	b14b      	cbz	r3, 2e0 <frame_dummy+0x20>
     2cc:	f640 5120 	movw	r1, #3360	@ 0xd20
     2d0:	f240 2028 	movw	r0, #552	@ 0x228
     2d4:	f2c2 0100 	movt	r1, #8192	@ 0x2000
     2d8:	f2c0 0000 	movt	r0, #0
     2dc:	e000      	b.n	2e0 <frame_dummy+0x20>
     2de:	bf00      	nop
     2e0:	f7ff ffc0 	bl	264 <register_tm_clones>
     2e4:	bd10      	pop	{r4, pc}
     2e6:	46c0      	nop			@ (mov r8, r8)

000002e8 <_stack_init>:
     2e8:	2240      	movs	r2, #64	@ 0x40
     2ea:	0292      	lsls	r2, r2, #10
     2ec:	1a9a      	subs	r2, r3, r2
     2ee:	4692      	mov	sl, r2
     2f0:	4770      	bx	lr
     2f2:	46c0      	nop			@ (mov r8, r8)

000002f4 <_mainCRTStartup>:
     2f4:	4b17      	ldr	r3, [pc, #92]	@ (354 <_mainCRTStartup+0x60>)
     2f6:	2b00      	cmp	r3, #0
     2f8:	d100      	bne.n	2fc <_mainCRTStartup+0x8>
     2fa:	4b13      	ldr	r3, [pc, #76]	@ (348 <_mainCRTStartup+0x54>)
     2fc:	469d      	mov	sp, r3
     2fe:	f7ff fff3 	bl	2e8 <_stack_init>
     302:	2100      	movs	r1, #0
     304:	468b      	mov	fp, r1
     306:	460f      	mov	r7, r1
     308:	4813      	ldr	r0, [pc, #76]	@ (358 <_mainCRTStartup+0x64>)
     30a:	4a14      	ldr	r2, [pc, #80]	@ (35c <_mainCRTStartup+0x68>)
     30c:	1a12      	subs	r2, r2, r0
     30e:	f000 f83d 	bl	38c <memset>
     312:	4b0e      	ldr	r3, [pc, #56]	@ (34c <_mainCRTStartup+0x58>)
     314:	2b00      	cmp	r3, #0
     316:	d000      	beq.n	31a <_mainCRTStartup+0x26>
     318:	4798      	blx	r3
     31a:	4b0d      	ldr	r3, [pc, #52]	@ (350 <_mainCRTStartup+0x5c>)
     31c:	2b00      	cmp	r3, #0
     31e:	d000      	beq.n	322 <_mainCRTStartup+0x2e>
     320:	4798      	blx	r3
     322:	2000      	movs	r0, #0
     324:	2100      	movs	r1, #0
     326:	0004      	movs	r4, r0
     328:	000d      	movs	r5, r1
     32a:	480d      	ldr	r0, [pc, #52]	@ (360 <_mainCRTStartup+0x6c>)
     32c:	2800      	cmp	r0, #0
     32e:	d002      	beq.n	336 <_mainCRTStartup+0x42>
     330:	480c      	ldr	r0, [pc, #48]	@ (364 <_mainCRTStartup+0x70>)
     332:	e000      	b.n	336 <_mainCRTStartup+0x42>
     334:	bf00      	nop
     336:	f000 f831 	bl	39c <__libc_init_array>
     33a:	0020      	movs	r0, r4
     33c:	0029      	movs	r1, r5
     33e:	f004 fb31 	bl	49a4 <main>
     342:	f000 f811 	bl	368 <exit>
     346:	46c0      	nop			@ (mov r8, r8)
     348:	00080000 			@ <UNDEFINED> instruction: 00080000
	...
     354:	20000c00 			@ <UNDEFINED> instruction: 20000c00
     358:	20000d1c 			@ <UNDEFINED> instruction: 20000d1c
     35c:	200030b8 			@ <UNDEFINED> instruction: 200030b8
	...

00000368 <exit>:
     368:	4b06      	ldr	r3, [pc, #24]	@ (384 <exit+0x1c>)
     36a:	b510      	push	{r4, lr}
     36c:	0004      	movs	r4, r0
     36e:	b113      	cbz	r3, 376 <exit+0xe>
     370:	2100      	movs	r1, #0
     372:	e000      	b.n	376 <exit+0xe>
     374:	bf00      	nop
     376:	4b04      	ldr	r3, [pc, #16]	@ (388 <exit+0x20>)
     378:	681b      	ldr	r3, [r3, #0]
     37a:	b103      	cbz	r3, 37e <exit+0x16>
     37c:	4798      	blx	r3
     37e:	0020      	movs	r0, r4
     380:	f004 fd64 	bl	4e4c <_exit>
     384:	00000000 			@ <UNDEFINED> instruction: 00000000
     388:	20000e70 			@ <UNDEFINED> instruction: 20000e70

0000038c <memset>:
     38c:	0003      	movs	r3, r0
     38e:	1882      	adds	r2, r0, r2
     390:	4293      	cmp	r3, r2
     392:	d100      	bne.n	396 <memset+0xa>
     394:	4770      	bx	lr
     396:	7019      	strb	r1, [r3, #0]
     398:	3301      	adds	r3, #1
     39a:	e7f9      	b.n	390 <memset+0x4>

0000039c <__libc_init_array>:
     39c:	b570      	push	{r4, r5, r6, lr}
     39e:	2500      	movs	r5, #0
     3a0:	4c0e      	ldr	r4, [pc, #56]	@ (3dc <__libc_init_array+0x40>)
     3a2:	4b0f      	ldr	r3, [pc, #60]	@ (3e0 <__libc_init_array+0x44>)
     3a4:	1ae4      	subs	r4, r4, r3
     3a6:	10a4      	asrs	r4, r4, #2
     3a8:	42a5      	cmp	r5, r4
     3aa:	d109      	bne.n	3c0 <__libc_init_array+0x24>
     3ac:	2500      	movs	r5, #0
     3ae:	f7ff ff2f 	bl	210 <_init>
     3b2:	4c0c      	ldr	r4, [pc, #48]	@ (3e4 <__libc_init_array+0x48>)
     3b4:	4b0c      	ldr	r3, [pc, #48]	@ (3e8 <__libc_init_array+0x4c>)
     3b6:	1ae4      	subs	r4, r4, r3
     3b8:	10a4      	asrs	r4, r4, #2
     3ba:	42a5      	cmp	r5, r4
     3bc:	d107      	bne.n	3ce <__libc_init_array+0x32>
     3be:	bd70      	pop	{r4, r5, r6, pc}
     3c0:	4a07      	ldr	r2, [pc, #28]	@ (3e0 <__libc_init_array+0x44>)
     3c2:	00ab      	lsls	r3, r5, #2
     3c4:	189b      	adds	r3, r3, r2
     3c6:	681b      	ldr	r3, [r3, #0]
     3c8:	4798      	blx	r3
     3ca:	3501      	adds	r5, #1
     3cc:	e7ec      	b.n	3a8 <__libc_init_array+0xc>
     3ce:	4a06      	ldr	r2, [pc, #24]	@ (3e8 <__libc_init_array+0x4c>)
     3d0:	00ab      	lsls	r3, r5, #2
     3d2:	189b      	adds	r3, r3, r2
     3d4:	681b      	ldr	r3, [r3, #0]
     3d6:	4798      	blx	r3
     3d8:	3501      	adds	r5, #1
     3da:	e7ee      	b.n	3ba <__libc_init_array+0x1e>
     3dc:	20000d14 			@ <UNDEFINED> instruction: 20000d14
     3e0:	20000d14 			@ <UNDEFINED> instruction: 20000d14
     3e4:	20000d18 			@ <UNDEFINED> instruction: 20000d18
     3e8:	20000d14 			@ <UNDEFINED> instruction: 20000d14

000003ec <__retarget_lock_acquire_recursive>:
     3ec:	4770      	bx	lr

000003ee <__retarget_lock_release_recursive>:
     3ee:	4770      	bx	lr

000003f0 <_free_r>:
     3f0:	b570      	push	{r4, r5, r6, lr}
     3f2:	0005      	movs	r5, r0
     3f4:	000c      	movs	r4, r1
     3f6:	b179      	cbz	r1, 418 <_free_r+0x28>
     3f8:	3c04      	subs	r4, #4
     3fa:	6823      	ldr	r3, [r4, #0]
     3fc:	2b00      	cmp	r3, #0
     3fe:	da00      	bge.n	402 <_free_r+0x12>
     400:	18e4      	adds	r4, r4, r3
     402:	0028      	movs	r0, r5
     404:	f000 f8de 	bl	5c4 <__malloc_lock>
     408:	4a1c      	ldr	r2, [pc, #112]	@ (47c <_free_r+0x8c>)
     40a:	6813      	ldr	r3, [r2, #0]
     40c:	b92b      	cbnz	r3, 41a <_free_r+0x2a>
     40e:	6063      	str	r3, [r4, #4]
     410:	6014      	str	r4, [r2, #0]
     412:	0028      	movs	r0, r5
     414:	f000 f8de 	bl	5d4 <__malloc_unlock>
     418:	bd70      	pop	{r4, r5, r6, pc}
     41a:	42a3      	cmp	r3, r4
     41c:	d908      	bls.n	430 <_free_r+0x40>
     41e:	6820      	ldr	r0, [r4, #0]
     420:	1821      	adds	r1, r4, r0
     422:	428b      	cmp	r3, r1
     424:	d1f3      	bne.n	40e <_free_r+0x1e>
     426:	6819      	ldr	r1, [r3, #0]
     428:	685b      	ldr	r3, [r3, #4]
     42a:	1809      	adds	r1, r1, r0
     42c:	6021      	str	r1, [r4, #0]
     42e:	e7ee      	b.n	40e <_free_r+0x1e>
     430:	001a      	movs	r2, r3
     432:	685b      	ldr	r3, [r3, #4]
     434:	b10b      	cbz	r3, 43a <_free_r+0x4a>
     436:	42a3      	cmp	r3, r4
     438:	d9fa      	bls.n	430 <_free_r+0x40>
     43a:	6811      	ldr	r1, [r2, #0]
     43c:	1850      	adds	r0, r2, r1
     43e:	42a0      	cmp	r0, r4
     440:	d10b      	bne.n	45a <_free_r+0x6a>
     442:	6820      	ldr	r0, [r4, #0]
     444:	1809      	adds	r1, r1, r0
     446:	1850      	adds	r0, r2, r1
     448:	6011      	str	r1, [r2, #0]
     44a:	4283      	cmp	r3, r0
     44c:	d1e1      	bne.n	412 <_free_r+0x22>
     44e:	6818      	ldr	r0, [r3, #0]
     450:	685b      	ldr	r3, [r3, #4]
     452:	1841      	adds	r1, r0, r1
     454:	6011      	str	r1, [r2, #0]
     456:	6053      	str	r3, [r2, #4]
     458:	e7db      	b.n	412 <_free_r+0x22>
     45a:	42a0      	cmp	r0, r4
     45c:	d902      	bls.n	464 <_free_r+0x74>
     45e:	230c      	movs	r3, #12
     460:	602b      	str	r3, [r5, #0]
     462:	e7d6      	b.n	412 <_free_r+0x22>
     464:	6820      	ldr	r0, [r4, #0]
     466:	1821      	adds	r1, r4, r0
     468:	428b      	cmp	r3, r1
     46a:	d103      	bne.n	474 <_free_r+0x84>
     46c:	6819      	ldr	r1, [r3, #0]
     46e:	685b      	ldr	r3, [r3, #4]
     470:	1809      	adds	r1, r1, r0
     472:	6021      	str	r1, [r4, #0]
     474:	6063      	str	r3, [r4, #4]
     476:	6054      	str	r4, [r2, #4]
     478:	e7cb      	b.n	412 <_free_r+0x22>
     47a:	46c0      	nop			@ (mov r8, r8)
     47c:	20000e80 			@ <UNDEFINED> instruction: 20000e80

00000480 <sbrk_aligned>:
     480:	b570      	push	{r4, r5, r6, lr}
     482:	4e0f      	ldr	r6, [pc, #60]	@ (4c0 <sbrk_aligned+0x40>)
     484:	000d      	movs	r5, r1
     486:	6831      	ldr	r1, [r6, #0]
     488:	0004      	movs	r4, r0
     48a:	b911      	cbnz	r1, 492 <sbrk_aligned+0x12>
     48c:	f000 f8aa 	bl	5e4 <_sbrk_r>
     490:	6030      	str	r0, [r6, #0]
     492:	0029      	movs	r1, r5
     494:	0020      	movs	r0, r4
     496:	f000 f8a5 	bl	5e4 <_sbrk_r>
     49a:	1c43      	adds	r3, r0, #1
     49c:	d103      	bne.n	4a6 <sbrk_aligned+0x26>
     49e:	2501      	movs	r5, #1
     4a0:	426d      	negs	r5, r5
     4a2:	0028      	movs	r0, r5
     4a4:	bd70      	pop	{r4, r5, r6, pc}
     4a6:	2303      	movs	r3, #3
     4a8:	1cc5      	adds	r5, r0, #3
     4aa:	439d      	bics	r5, r3
     4ac:	42a8      	cmp	r0, r5
     4ae:	d0f8      	beq.n	4a2 <sbrk_aligned+0x22>
     4b0:	1a29      	subs	r1, r5, r0
     4b2:	0020      	movs	r0, r4
     4b4:	f000 f896 	bl	5e4 <_sbrk_r>
     4b8:	3001      	adds	r0, #1
     4ba:	d1f2      	bne.n	4a2 <sbrk_aligned+0x22>
     4bc:	e7ef      	b.n	49e <sbrk_aligned+0x1e>
     4be:	46c0      	nop			@ (mov r8, r8)
     4c0:	20000e7c 			@ <UNDEFINED> instruction: 20000e7c

000004c4 <_malloc_r>:
     4c4:	b5f7      	push	{r0, r1, r2, r4, r5, r6, r7, lr}
     4c6:	2203      	movs	r2, #3
     4c8:	1ccb      	adds	r3, r1, #3
     4ca:	4393      	bics	r3, r2
     4cc:	3308      	adds	r3, #8
     4ce:	0005      	movs	r5, r0
     4d0:	001f      	movs	r7, r3
     4d2:	2b0c      	cmp	r3, #12
     4d4:	d234      	bcs.n	540 <_malloc_r+0x7c>
     4d6:	270c      	movs	r7, #12
     4d8:	42b9      	cmp	r1, r7
     4da:	d833      	bhi.n	544 <_malloc_r+0x80>
     4dc:	4e38      	ldr	r6, [pc, #224]	@ (5c0 <_malloc_r+0xfc>)
     4de:	0028      	movs	r0, r5
     4e0:	f000 f870 	bl	5c4 <__malloc_lock>
     4e4:	6833      	ldr	r3, [r6, #0]
     4e6:	001c      	movs	r4, r3
     4e8:	2c00      	cmp	r4, #0
     4ea:	d12f      	bne.n	54c <_malloc_r+0x88>
     4ec:	0039      	movs	r1, r7
     4ee:	0028      	movs	r0, r5
     4f0:	f7ff ffc6 	bl	480 <sbrk_aligned>
     4f4:	0004      	movs	r4, r0
     4f6:	1c43      	adds	r3, r0, #1
     4f8:	d15f      	bne.n	5ba <_malloc_r+0xf6>
     4fa:	6834      	ldr	r4, [r6, #0]
     4fc:	9400      	str	r4, [sp, #0]
     4fe:	9b00      	ldr	r3, [sp, #0]
     500:	2b00      	cmp	r3, #0
     502:	d14a      	bne.n	59a <_malloc_r+0xd6>
     504:	2c00      	cmp	r4, #0
     506:	d052      	beq.n	5ae <_malloc_r+0xea>
     508:	6823      	ldr	r3, [r4, #0]
     50a:	0028      	movs	r0, r5
     50c:	18e3      	adds	r3, r4, r3
     50e:	9900      	ldr	r1, [sp, #0]
     510:	9301      	str	r3, [sp, #4]
     512:	f000 f867 	bl	5e4 <_sbrk_r>
     516:	9b01      	ldr	r3, [sp, #4]
     518:	4283      	cmp	r3, r0
     51a:	d148      	bne.n	5ae <_malloc_r+0xea>
     51c:	6823      	ldr	r3, [r4, #0]
     51e:	0028      	movs	r0, r5
     520:	1aff      	subs	r7, r7, r3
     522:	0039      	movs	r1, r7
     524:	f7ff ffac 	bl	480 <sbrk_aligned>
     528:	3001      	adds	r0, #1
     52a:	d040      	beq.n	5ae <_malloc_r+0xea>
     52c:	6823      	ldr	r3, [r4, #0]
     52e:	19db      	adds	r3, r3, r7
     530:	6023      	str	r3, [r4, #0]
     532:	6833      	ldr	r3, [r6, #0]
     534:	685a      	ldr	r2, [r3, #4]
     536:	2a00      	cmp	r2, #0
     538:	d133      	bne.n	5a2 <_malloc_r+0xde>
     53a:	9b00      	ldr	r3, [sp, #0]
     53c:	6033      	str	r3, [r6, #0]
     53e:	e019      	b.n	574 <_malloc_r+0xb0>
     540:	2b00      	cmp	r3, #0
     542:	dac9      	bge.n	4d8 <_malloc_r+0x14>
     544:	230c      	movs	r3, #12
     546:	602b      	str	r3, [r5, #0]
     548:	2000      	movs	r0, #0
     54a:	bdfe      	pop	{r1, r2, r3, r4, r5, r6, r7, pc}
     54c:	6821      	ldr	r1, [r4, #0]
     54e:	1bc9      	subs	r1, r1, r7
     550:	d420      	bmi.n	594 <_malloc_r+0xd0>
     552:	290b      	cmp	r1, #11
     554:	d90a      	bls.n	56c <_malloc_r+0xa8>
     556:	19e2      	adds	r2, r4, r7
     558:	6027      	str	r7, [r4, #0]
     55a:	42a3      	cmp	r3, r4
     55c:	d104      	bne.n	568 <_malloc_r+0xa4>
     55e:	6032      	str	r2, [r6, #0]
     560:	6863      	ldr	r3, [r4, #4]
     562:	6011      	str	r1, [r2, #0]
     564:	6053      	str	r3, [r2, #4]
     566:	e005      	b.n	574 <_malloc_r+0xb0>
     568:	605a      	str	r2, [r3, #4]
     56a:	e7f9      	b.n	560 <_malloc_r+0x9c>
     56c:	6862      	ldr	r2, [r4, #4]
     56e:	42a3      	cmp	r3, r4
     570:	d10e      	bne.n	590 <_malloc_r+0xcc>
     572:	6032      	str	r2, [r6, #0]
     574:	0028      	movs	r0, r5
     576:	f000 f82d 	bl	5d4 <__malloc_unlock>
     57a:	0020      	movs	r0, r4
     57c:	2207      	movs	r2, #7
     57e:	300b      	adds	r0, #11
     580:	1d23      	adds	r3, r4, #4
     582:	4390      	bics	r0, r2
     584:	1ac2      	subs	r2, r0, r3
     586:	4298      	cmp	r0, r3
     588:	d0df      	beq.n	54a <_malloc_r+0x86>
     58a:	1a1b      	subs	r3, r3, r0
     58c:	50a3      	str	r3, [r4, r2]
     58e:	e7dc      	b.n	54a <_malloc_r+0x86>
     590:	605a      	str	r2, [r3, #4]
     592:	e7ef      	b.n	574 <_malloc_r+0xb0>
     594:	0023      	movs	r3, r4
     596:	6864      	ldr	r4, [r4, #4]
     598:	e7a6      	b.n	4e8 <_malloc_r+0x24>
     59a:	9c00      	ldr	r4, [sp, #0]
     59c:	6863      	ldr	r3, [r4, #4]
     59e:	9300      	str	r3, [sp, #0]
     5a0:	e7ad      	b.n	4fe <_malloc_r+0x3a>
     5a2:	001a      	movs	r2, r3
     5a4:	685b      	ldr	r3, [r3, #4]
     5a6:	42a3      	cmp	r3, r4
     5a8:	d1fb      	bne.n	5a2 <_malloc_r+0xde>
     5aa:	2300      	movs	r3, #0
     5ac:	e7da      	b.n	564 <_malloc_r+0xa0>
     5ae:	230c      	movs	r3, #12
     5b0:	0028      	movs	r0, r5
     5b2:	602b      	str	r3, [r5, #0]
     5b4:	f000 f80e 	bl	5d4 <__malloc_unlock>
     5b8:	e7c6      	b.n	548 <_malloc_r+0x84>
     5ba:	6007      	str	r7, [r0, #0]
     5bc:	e7da      	b.n	574 <_malloc_r+0xb0>
     5be:	46c0      	nop			@ (mov r8, r8)
     5c0:	20000e80 			@ <UNDEFINED> instruction: 20000e80

000005c4 <__malloc_lock>:
     5c4:	b510      	push	{r4, lr}
     5c6:	4802      	ldr	r0, [pc, #8]	@ (5d0 <__malloc_lock+0xc>)
     5c8:	f7ff ff10 	bl	3ec <__retarget_lock_acquire_recursive>
     5cc:	bd10      	pop	{r4, pc}
     5ce:	46c0      	nop			@ (mov r8, r8)
     5d0:	20000e78 			@ <UNDEFINED> instruction: 20000e78

000005d4 <__malloc_unlock>:
     5d4:	b510      	push	{r4, lr}
     5d6:	4802      	ldr	r0, [pc, #8]	@ (5e0 <__malloc_unlock+0xc>)
     5d8:	f7ff ff09 	bl	3ee <__retarget_lock_release_recursive>
     5dc:	bd10      	pop	{r4, pc}
     5de:	46c0      	nop			@ (mov r8, r8)
     5e0:	20000e78 			@ <UNDEFINED> instruction: 20000e78

000005e4 <_sbrk_r>:
     5e4:	2300      	movs	r3, #0
     5e6:	b570      	push	{r4, r5, r6, lr}
     5e8:	4d05      	ldr	r5, [pc, #20]	@ (600 <_sbrk_r+0x1c>)
     5ea:	0004      	movs	r4, r0
     5ec:	0008      	movs	r0, r1
     5ee:	602b      	str	r3, [r5, #0]
     5f0:	f002 faac 	bl	2b4c <_sbrk>
     5f4:	1c43      	adds	r3, r0, #1
     5f6:	d102      	bne.n	5fe <_sbrk_r+0x1a>
     5f8:	682b      	ldr	r3, [r5, #0]
     5fa:	b103      	cbz	r3, 5fe <_sbrk_r+0x1a>
     5fc:	6023      	str	r3, [r4, #0]
     5fe:	bd70      	pop	{r4, r5, r6, pc}
     600:	20000e74 			@ <UNDEFINED> instruction: 20000e74

00000604 <Reset_Handler>:
     604:	f002 fba2 	bl	2d4c <SystemInit>
     608:	4906      	ldr	r1, [pc, #24]	@ (624 <Reset_Handler+0x20>)
     60a:	4a07      	ldr	r2, [pc, #28]	@ (628 <Reset_Handler+0x24>)
     60c:	4b07      	ldr	r3, [pc, #28]	@ (62c <Reset_Handler+0x28>)
     60e:	1a9b      	subs	r3, r3, r2
     610:	dd03      	ble.n	61a <Reset_Handler+0x16>
     612:	3b04      	subs	r3, #4
     614:	58c8      	ldr	r0, [r1, r3]
     616:	50d0      	str	r0, [r2, r3]
     618:	dcfb      	bgt.n	612 <Reset_Handler+0xe>
     61a:	4805      	ldr	r0, [pc, #20]	@ (630 <Reset_Handler+0x2c>)
     61c:	f380 880a 	msr	MSPLIM, r0
     620:	f7ff fe68 	bl	2f4 <_mainCRTStartup>
     624:	00005b1c 			@ <UNDEFINED> instruction: 00005b1c
     628:	20000c00 			@ <UNDEFINED> instruction: 20000c00
     62c:	20000d1c 			@ <UNDEFINED> instruction: 20000d1c
     630:	20000400 			@ <UNDEFINED> instruction: 20000400
     634:	4670      	mov	r0, lr
     636:	f3ef 8108 	mrs	r1, MSP
     63a:	f3ef 830a 	mrs	r3, MSPLIM
     63e:	4299      	cmp	r1, r3
     640:	d0fe      	beq.n	640 <Reset_Handler+0x3c>
     642:	f3ef 8209 	mrs	r2, PSP
     646:	4b06      	ldr	r3, [pc, #24]	@ (660 <__PC+0x4>)
     648:	4798      	blx	r3
     64a:	4700      	bx	r0

0000064c <ProcessHardFaultx>:
     64c:	e7fe      	b.n	64c <ProcessHardFaultx>

0000064e <ACMP01_IRQHandler>:
     64e:	e7fe      	b.n	64e <ACMP01_IRQHandler>

00000650 <SH_DoCommand>:
     650:	beab      	bkpt	0x00ab
     652:	4b04      	ldr	r3, [pc, #16]	@ (664 <__PC+0x8>)
     654:	4674      	mov	r4, lr
     656:	4798      	blx	r3
     658:	4720      	bx	r4
     65a:	46c0      	nop			@ (mov r8, r8)

0000065c <__PC>:
     65c:	4670      	mov	r0, lr
     65e:	47f0      	blx	lr
     660:	00001491 			@ <UNDEFINED> instruction: 00001491
     664:	00002b49 			@ <UNDEFINED> instruction: 00002b49

00000668 <HardFault_Handler>:
     668:	4670      	mov	r0, lr
     66a:	f3ef 8108 	mrs	r1, MSP
     66e:	f3ef 8209 	mrs	r2, PSP
     672:	f000 ff0d 	bl	1490 <ProcessHardFault>
	...

00000678 <cpu_msp_set_seal>:
     678:	4b02      	ldr	r3, [pc, #8]	@ (684 <cpu_msp_set_seal+0xc>)
     67a:	4a03      	ldr	r2, [pc, #12]	@ (688 <cpu_msp_set_seal+0x10>)
     67c:	601a      	str	r2, [r3, #0]
     67e:	605a      	str	r2, [r3, #4]
     680:	4770      	bx	lr
     682:	46c0      	nop			@ (mov r8, r8)
     684:	20000400 			@ <UNDEFINED> instruction: 20000400
     688:	fefefefe 	mrc2	14, 7, pc, cr14, cr14, {7}

0000068c <cpu_init>:
     68c:	b570      	push	{r4, r5, r6, lr}
     68e:	2059      	movs	r0, #89	@ 0x59
     690:	2416      	movs	r4, #22
     692:	2588      	movs	r5, #136	@ 0x88
     694:	4a22      	ldr	r2, [pc, #136]	@ (720 <cpu_init+0x94>)
     696:	4b23      	ldr	r3, [pc, #140]	@ (724 <cpu_init+0x98>)
     698:	3a01      	subs	r2, #1
     69a:	6058      	str	r0, [r3, #4]
     69c:	605c      	str	r4, [r3, #4]
     69e:	605d      	str	r5, [r3, #4]
     6a0:	b112      	cbz	r2, 6a8 <cpu_init+0x1c>
     6a2:	6859      	ldr	r1, [r3, #4]
     6a4:	2900      	cmp	r1, #0
     6a6:	d0f7      	beq.n	698 <cpu_init+0xc>
     6a8:	2003      	movs	r0, #3
     6aa:	f002 fd9f 	bl	31ec <CLK_EnableXtalRC>
     6ae:	2003      	movs	r0, #3
     6b0:	f002 ff0e 	bl	34d0 <CLK_WaitClockReady>
     6b4:	481c      	ldr	r0, [pc, #112]	@ (728 <cpu_init+0x9c>)
     6b6:	f002 feb3 	bl	3420 <CLK_SetCoreClock>
     6ba:	2014      	movs	r0, #20
     6bc:	f002 fd9e 	bl	31fc <CLK_EnableModuleClock>
     6c0:	2015      	movs	r0, #21
     6c2:	f002 fd9b 	bl	31fc <CLK_EnableModuleClock>
     6c6:	2016      	movs	r0, #22
     6c8:	f002 fd98 	bl	31fc <CLK_EnableModuleClock>
     6cc:	2018      	movs	r0, #24
     6ce:	f002 fd95 	bl	31fc <CLK_EnableModuleClock>
     6d2:	2019      	movs	r0, #25
     6d4:	f002 fd92 	bl	31fc <CLK_EnableModuleClock>
     6d8:	201a      	movs	r0, #26
     6da:	f002 fd8f 	bl	31fc <CLK_EnableModuleClock>
     6de:	201b      	movs	r0, #27
     6e0:	f002 fd8c 	bl	31fc <CLK_EnableModuleClock>
     6e4:	201c      	movs	r0, #28
     6e6:	f002 fd89 	bl	31fc <CLK_EnableModuleClock>
     6ea:	201d      	movs	r0, #29
     6ec:	f002 fd86 	bl	31fc <CLK_EnableModuleClock>
     6f0:	4c0e      	ldr	r4, [pc, #56]	@ (72c <cpu_init+0xa0>)
     6f2:	201e      	movs	r0, #30
     6f4:	f002 fd82 	bl	31fc <CLK_EnableModuleClock>
     6f8:	201f      	movs	r0, #31
     6fa:	f002 fd7f 	bl	31fc <CLK_EnableModuleClock>
     6fe:	f002 fb03 	bl	2d08 <SystemCoreClockUpdate>
     702:	f240 4200 	movw	r2, #1024	@ 0x400
     706:	0020      	movs	r0, r4
     708:	4909      	ldr	r1, [pc, #36]	@ (730 <cpu_init+0xa4>)
     70a:	f004 fb95 	bl	4e38 <memcpy>
     70e:	b672      	cpsid	i
     710:	4b08      	ldr	r3, [pc, #32]	@ (734 <cpu_init+0xa8>)
     712:	609c      	str	r4, [r3, #8]
     714:	f3bf 8f4f 	dsb	sy
     718:	b662      	cpsie	i
     71a:	f7ff ffad 	bl	678 <cpu_msp_set_seal>
     71e:	bd70      	pop	{r4, r5, r6, pc}
     720:	00b71b00 			@ <UNDEFINED> instruction: 00b71b00
     724:	400000fc 	strdmi	r0, [r0], -ip
     728:	05b8d800 			@ <UNDEFINED> instruction: 05b8d800
     72c:	20000000 			@ <UNDEFINED> instruction: 20000000
     730:	00000000 			@ <UNDEFINED> instruction: 00000000
     734:	e000ed00 			@ <UNDEFINED> instruction: e000ed00

00000738 <__NVIC_SetVector>:
     738:	4b02      	ldr	r3, [pc, #8]	@ (744 <__NVIC_SetVector+0xc>)
     73a:	3010      	adds	r0, #16
     73c:	689b      	ldr	r3, [r3, #8]
     73e:	0080      	lsls	r0, r0, #2
     740:	50c1      	str	r1, [r0, r3]
     742:	4770      	bx	lr
     744:	e000ed00 			@ <UNDEFINED> instruction: e000ed00

00000748 <__NVIC_EnableIRQ>:
     748:	2800      	cmp	r0, #0
     74a:	db07      	blt.n	75c <__NVIC_EnableIRQ+0x14>
     74c:	221f      	movs	r2, #31
     74e:	0943      	lsrs	r3, r0, #5
     750:	4010      	ands	r0, r2
     752:	3a1e      	subs	r2, #30
     754:	4082      	lsls	r2, r0
     756:	4902      	ldr	r1, [pc, #8]	@ (760 <__NVIC_EnableIRQ+0x18>)
     758:	009b      	lsls	r3, r3, #2
     75a:	505a      	str	r2, [r3, r1]
     75c:	4770      	bx	lr
     75e:	46c0      	nop			@ (mov r8, r8)
     760:	e000e100 			@ <UNDEFINED> instruction: e000e100

00000764 <__NVIC_DisableIRQ>:
     764:	2800      	cmp	r0, #0
     766:	db0c      	blt.n	782 <__NVIC_DisableIRQ+0x1e>
     768:	221f      	movs	r2, #31
     76a:	0943      	lsrs	r3, r0, #5
     76c:	4010      	ands	r0, r2
     76e:	3a1e      	subs	r2, #30
     770:	4082      	lsls	r2, r0
     772:	4904      	ldr	r1, [pc, #16]	@ (784 <__NVIC_DisableIRQ+0x20>)
     774:	3320      	adds	r3, #32
     776:	009b      	lsls	r3, r3, #2
     778:	505a      	str	r2, [r3, r1]
     77a:	f3bf 8f4f 	dsb	sy
     77e:	f3bf 8f6f 	isb	sy
     782:	4770      	bx	lr
     784:	e000e100 			@ <UNDEFINED> instruction: e000e100

00000788 <FMC_ReadUID>:
     788:	b5f7      	push	{r0, r1, r2, r4, r5, r6, r7, lr}
     78a:	2700      	movs	r7, #0
     78c:	4b2e      	ldr	r3, [pc, #184]	@ (848 <_ld_stack_size+0x48>)
     78e:	4e2f      	ldr	r6, [pc, #188]	@ (84c <_ld_stack_size+0x4c>)
     790:	681d      	ldr	r5, [r3, #0]
     792:	9001      	str	r0, [sp, #4]
     794:	6037      	str	r7, [r6, #0]
     796:	f7ff ff61 	bl	65c <__PC>
     79a:	2480      	movs	r4, #128	@ 0x80
     79c:	0003      	movs	r3, r0
     79e:	0564      	lsls	r4, r4, #21
     7a0:	4023      	ands	r3, r4
     7a2:	425a      	negs	r2, r3
     7a4:	4153      	adcs	r3, r2
     7a6:	425b      	negs	r3, r3
     7a8:	4a29      	ldr	r2, [pc, #164]	@ (850 <_ld_stack_size+0x50>)
     7aa:	0f1b      	lsrs	r3, r3, #28
     7ac:	071b      	lsls	r3, r3, #28
     7ae:	189b      	adds	r3, r3, r2
     7b0:	2204      	movs	r2, #4
     7b2:	60da      	str	r2, [r3, #12]
     7b4:	f7ff ff52 	bl	65c <__PC>
     7b8:	0003      	movs	r3, r0
     7ba:	4023      	ands	r3, r4
     7bc:	425a      	negs	r2, r3
     7be:	4153      	adcs	r3, r2
     7c0:	425b      	negs	r3, r3
     7c2:	9901      	ldr	r1, [sp, #4]
     7c4:	4a22      	ldr	r2, [pc, #136]	@ (850 <_ld_stack_size+0x50>)
     7c6:	0f1b      	lsrs	r3, r3, #28
     7c8:	071b      	lsls	r3, r3, #28
     7ca:	189b      	adds	r3, r3, r2
     7cc:	008a      	lsls	r2, r1, #2
     7ce:	605a      	str	r2, [r3, #4]
     7d0:	f7ff ff44 	bl	65c <__PC>
     7d4:	0003      	movs	r3, r0
     7d6:	4023      	ands	r3, r4
     7d8:	425a      	negs	r2, r3
     7da:	4153      	adcs	r3, r2
     7dc:	425b      	negs	r3, r3
     7de:	4a1c      	ldr	r2, [pc, #112]	@ (850 <_ld_stack_size+0x50>)
     7e0:	0f1b      	lsrs	r3, r3, #28
     7e2:	071b      	lsls	r3, r3, #28
     7e4:	189b      	adds	r3, r3, r2
     7e6:	609f      	str	r7, [r3, #8]
     7e8:	f7ff ff38 	bl	65c <__PC>
     7ec:	0003      	movs	r3, r0
     7ee:	4023      	ands	r3, r4
     7f0:	425a      	negs	r2, r3
     7f2:	4153      	adcs	r3, r2
     7f4:	425b      	negs	r3, r3
     7f6:	4a16      	ldr	r2, [pc, #88]	@ (850 <_ld_stack_size+0x50>)
     7f8:	0f1b      	lsrs	r3, r3, #28
     7fa:	071b      	lsls	r3, r3, #28
     7fc:	189b      	adds	r3, r3, r2
     7fe:	2201      	movs	r2, #1
     800:	08ed      	lsrs	r5, r5, #3
     802:	611a      	str	r2, [r3, #16]
     804:	f7ff ff2a 	bl	65c <__PC>
     808:	0003      	movs	r3, r0
     80a:	4023      	ands	r3, r4
     80c:	425a      	negs	r2, r3
     80e:	4153      	adcs	r3, r2
     810:	425b      	negs	r3, r3
     812:	4a0f      	ldr	r2, [pc, #60]	@ (850 <_ld_stack_size+0x50>)
     814:	0f1b      	lsrs	r3, r3, #28
     816:	071b      	lsls	r3, r3, #28
     818:	189b      	adds	r3, r3, r2
     81a:	691b      	ldr	r3, [r3, #16]
     81c:	b963      	cbnz	r3, 838 <_ld_stack_size+0x38>
     81e:	f7ff ff1d 	bl	65c <__PC>
     822:	0003      	movs	r3, r0
     824:	4023      	ands	r3, r4
     826:	425a      	negs	r2, r3
     828:	4153      	adcs	r3, r2
     82a:	425b      	negs	r3, r3
     82c:	4a08      	ldr	r2, [pc, #32]	@ (850 <_ld_stack_size+0x50>)
     82e:	0f1b      	lsrs	r3, r3, #28
     830:	071b      	lsls	r3, r3, #28
     832:	189b      	adds	r3, r3, r2
     834:	6898      	ldr	r0, [r3, #8]
     836:	e004      	b.n	842 <_ld_stack_size+0x42>
     838:	1e6b      	subs	r3, r5, #1
     83a:	b91d      	cbnz	r5, 844 <_ld_stack_size+0x44>
     83c:	2001      	movs	r0, #1
     83e:	4240      	negs	r0, r0
     840:	6030      	str	r0, [r6, #0]
     842:	bdfe      	pop	{r1, r2, r3, r4, r5, r6, r7, pc}
     844:	001d      	movs	r5, r3
     846:	e7dd      	b.n	804 <_ld_stack_size+0x4>
     848:	20000c84 			@ <UNDEFINED> instruction: 20000c84
     84c:	20001060 			@ <UNDEFINED> instruction: 20001060
     850:	5000c000 			@ <UNDEFINED> instruction: 5000c000

00000854 <QSPI_IO32.isra.0>:
     854:	b5f7      	push	{r0, r1, r2, r4, r5, r6, r7, lr}
     856:	2400      	movs	r4, #0
     858:	2501      	movs	r5, #1
     85a:	429c      	cmp	r4, r3
     85c:	d102      	bne.n	864 <QSPI_IO32.isra.0+0x10>
     85e:	f003 f9f9 	bl	3c54 <QSPI_ClearRxFIFO>
     862:	bdf7      	pop	{r0, r1, r2, r4, r5, r6, r7, pc}
     864:	b1a9      	cbz	r1, 892 <QSPI_IO32.isra.0+0x3e>
     866:	00a7      	lsls	r7, r4, #2
     868:	59cf      	ldr	r7, [r1, r7]
     86a:	6207      	str	r7, [r0, #32]
     86c:	6947      	ldr	r7, [r0, #20]
     86e:	422f      	tst	r7, r5
     870:	d1fc      	bne.n	86c <QSPI_IO32.isra.0+0x18>
     872:	f240 1600 	movw	r6, #256	@ 0x100
     876:	6947      	ldr	r7, [r0, #20]
     878:	4237      	tst	r7, r6
     87a:	d1fa      	bne.n	872 <QSPI_IO32.isra.0+0x1e>
     87c:	6b07      	ldr	r7, [r0, #48]	@ 0x30
     87e:	b152      	cbz	r2, 896 <QSPI_IO32.isra.0+0x42>
     880:	46bc      	mov	ip, r7
     882:	4666      	mov	r6, ip
     884:	00a7      	lsls	r7, r4, #2
     886:	51d6      	str	r6, [r2, r7]
     888:	6947      	ldr	r7, [r0, #20]
     88a:	422f      	tst	r7, r5
     88c:	d1fc      	bne.n	888 <QSPI_IO32.isra.0+0x34>
     88e:	3401      	adds	r4, #1
     890:	e7e3      	b.n	85a <QSPI_IO32.isra.0+0x6>
     892:	6201      	str	r1, [r0, #32]
     894:	e7ea      	b.n	86c <QSPI_IO32.isra.0+0x18>
     896:	9701      	str	r7, [sp, #4]
     898:	9f01      	ldr	r7, [sp, #4]
     89a:	e7f5      	b.n	888 <QSPI_IO32.isra.0+0x34>

0000089c <QSPI_IO16.isra.0>:
     89c:	b5f7      	push	{r0, r1, r2, r4, r5, r6, r7, lr}
     89e:	2400      	movs	r4, #0
     8a0:	2501      	movs	r5, #1
     8a2:	429c      	cmp	r4, r3
     8a4:	d102      	bne.n	8ac <QSPI_IO16.isra.0+0x10>
     8a6:	f003 f9d5 	bl	3c54 <QSPI_ClearRxFIFO>
     8aa:	bdf7      	pop	{r0, r1, r2, r4, r5, r6, r7, pc}
     8ac:	b1a9      	cbz	r1, 8da <QSPI_IO16.isra.0+0x3e>
     8ae:	0067      	lsls	r7, r4, #1
     8b0:	5bcf      	ldrh	r7, [r1, r7]
     8b2:	6207      	str	r7, [r0, #32]
     8b4:	6947      	ldr	r7, [r0, #20]
     8b6:	422f      	tst	r7, r5
     8b8:	d1fc      	bne.n	8b4 <QSPI_IO16.isra.0+0x18>
     8ba:	f240 1600 	movw	r6, #256	@ 0x100
     8be:	6947      	ldr	r7, [r0, #20]
     8c0:	4237      	tst	r7, r6
     8c2:	d1fa      	bne.n	8ba <QSPI_IO16.isra.0+0x1e>
     8c4:	6b07      	ldr	r7, [r0, #48]	@ 0x30
     8c6:	b152      	cbz	r2, 8de <QSPI_IO16.isra.0+0x42>
     8c8:	46bc      	mov	ip, r7
     8ca:	4666      	mov	r6, ip
     8cc:	0067      	lsls	r7, r4, #1
     8ce:	53d6      	strh	r6, [r2, r7]
     8d0:	6947      	ldr	r7, [r0, #20]
     8d2:	422f      	tst	r7, r5
     8d4:	d1fc      	bne.n	8d0 <QSPI_IO16.isra.0+0x34>
     8d6:	3401      	adds	r4, #1
     8d8:	e7e3      	b.n	8a2 <QSPI_IO16.isra.0+0x6>
     8da:	6201      	str	r1, [r0, #32]
     8dc:	e7ea      	b.n	8b4 <QSPI_IO16.isra.0+0x18>
     8de:	9701      	str	r7, [sp, #4]
     8e0:	9f01      	ldr	r7, [sp, #4]
     8e2:	e7f5      	b.n	8d0 <QSPI_IO16.isra.0+0x34>

000008e4 <QSPI_IO8.isra.0>:
     8e4:	b5f7      	push	{r0, r1, r2, r4, r5, r6, r7, lr}
     8e6:	2400      	movs	r4, #0
     8e8:	2501      	movs	r5, #1
     8ea:	f240 1600 	movw	r6, #256	@ 0x100
     8ee:	429c      	cmp	r4, r3
     8f0:	d102      	bne.n	8f8 <QSPI_IO8.isra.0+0x14>
     8f2:	f003 f9af 	bl	3c54 <QSPI_ClearRxFIFO>
     8f6:	bdf7      	pop	{r0, r1, r2, r4, r5, r6, r7, pc}
     8f8:	b179      	cbz	r1, 91a <QSPI_IO8.isra.0+0x36>
     8fa:	5d0f      	ldrb	r7, [r1, r4]
     8fc:	6207      	str	r7, [r0, #32]
     8fe:	6947      	ldr	r7, [r0, #20]
     900:	422f      	tst	r7, r5
     902:	d1fc      	bne.n	8fe <QSPI_IO8.isra.0+0x1a>
     904:	6947      	ldr	r7, [r0, #20]
     906:	4237      	tst	r7, r6
     908:	d1fc      	bne.n	904 <QSPI_IO8.isra.0+0x20>
     90a:	6b07      	ldr	r7, [r0, #48]	@ 0x30
     90c:	b13a      	cbz	r2, 91e <QSPI_IO8.isra.0+0x3a>
     90e:	5517      	strb	r7, [r2, r4]
     910:	6947      	ldr	r7, [r0, #20]
     912:	422f      	tst	r7, r5
     914:	d1fc      	bne.n	910 <QSPI_IO8.isra.0+0x2c>
     916:	3401      	adds	r4, #1
     918:	e7e9      	b.n	8ee <QSPI_IO8.isra.0+0xa>
     91a:	6201      	str	r1, [r0, #32]
     91c:	e7ef      	b.n	8fe <QSPI_IO8.isra.0+0x1a>
     91e:	9701      	str	r7, [sp, #4]
     920:	9f01      	ldr	r7, [sp, #4]
     922:	e7f5      	b.n	910 <QSPI_IO8.isra.0+0x2c>

00000924 <SPI_IO32.isra.0>:
     924:	b5f7      	push	{r0, r1, r2, r4, r5, r6, r7, lr}
     926:	2400      	movs	r4, #0
     928:	2501      	movs	r5, #1
     92a:	429c      	cmp	r4, r3
     92c:	d102      	bne.n	934 <SPI_IO32.isra.0+0x10>
     92e:	f003 fc2f 	bl	4190 <SPI_ClearRxFIFO>
     932:	bdf7      	pop	{r0, r1, r2, r4, r5, r6, r7, pc}
     934:	b1a9      	cbz	r1, 962 <SPI_IO32.isra.0+0x3e>
     936:	00a7      	lsls	r7, r4, #2
     938:	59cf      	ldr	r7, [r1, r7]
     93a:	6207      	str	r7, [r0, #32]
     93c:	6947      	ldr	r7, [r0, #20]
     93e:	422f      	tst	r7, r5
     940:	d1fc      	bne.n	93c <SPI_IO32.isra.0+0x18>
     942:	f240 1600 	movw	r6, #256	@ 0x100
     946:	6947      	ldr	r7, [r0, #20]
     948:	4237      	tst	r7, r6
     94a:	d1fa      	bne.n	942 <SPI_IO32.isra.0+0x1e>
     94c:	6b07      	ldr	r7, [r0, #48]	@ 0x30
     94e:	b152      	cbz	r2, 966 <SPI_IO32.isra.0+0x42>
     950:	46bc      	mov	ip, r7
     952:	4666      	mov	r6, ip
     954:	00a7      	lsls	r7, r4, #2
     956:	51d6      	str	r6, [r2, r7]
     958:	6947      	ldr	r7, [r0, #20]
     95a:	422f      	tst	r7, r5
     95c:	d1fc      	bne.n	958 <SPI_IO32.isra.0+0x34>
     95e:	3401      	adds	r4, #1
     960:	e7e3      	b.n	92a <SPI_IO32.isra.0+0x6>
     962:	6201      	str	r1, [r0, #32]
     964:	e7ea      	b.n	93c <SPI_IO32.isra.0+0x18>
     966:	9701      	str	r7, [sp, #4]
     968:	9f01      	ldr	r7, [sp, #4]
     96a:	e7f5      	b.n	958 <SPI_IO32.isra.0+0x34>

0000096c <SPI_IO16.isra.0>:
     96c:	b5f7      	push	{r0, r1, r2, r4, r5, r6, r7, lr}
     96e:	2400      	movs	r4, #0
     970:	2501      	movs	r5, #1
     972:	429c      	cmp	r4, r3
     974:	d102      	bne.n	97c <SPI_IO16.isra.0+0x10>
     976:	f003 fc0b 	bl	4190 <SPI_ClearRxFIFO>
     97a:	bdf7      	pop	{r0, r1, r2, r4, r5, r6, r7, pc}
     97c:	b1a9      	cbz	r1, 9aa <SPI_IO16.isra.0+0x3e>
     97e:	0067      	lsls	r7, r4, #1
     980:	5bcf      	ldrh	r7, [r1, r7]
     982:	6207      	str	r7, [r0, #32]
     984:	6947      	ldr	r7, [r0, #20]
     986:	422f      	tst	r7, r5
     988:	d1fc      	bne.n	984 <SPI_IO16.isra.0+0x18>
     98a:	f240 1600 	movw	r6, #256	@ 0x100
     98e:	6947      	ldr	r7, [r0, #20]
     990:	4237      	tst	r7, r6
     992:	d1fa      	bne.n	98a <SPI_IO16.isra.0+0x1e>
     994:	6b07      	ldr	r7, [r0, #48]	@ 0x30
     996:	b152      	cbz	r2, 9ae <SPI_IO16.isra.0+0x42>
     998:	46bc      	mov	ip, r7
     99a:	4666      	mov	r6, ip
     99c:	0067      	lsls	r7, r4, #1
     99e:	53d6      	strh	r6, [r2, r7]
     9a0:	6947      	ldr	r7, [r0, #20]
     9a2:	422f      	tst	r7, r5
     9a4:	d1fc      	bne.n	9a0 <SPI_IO16.isra.0+0x34>
     9a6:	3401      	adds	r4, #1
     9a8:	e7e3      	b.n	972 <SPI_IO16.isra.0+0x6>
     9aa:	6201      	str	r1, [r0, #32]
     9ac:	e7ea      	b.n	984 <SPI_IO16.isra.0+0x18>
     9ae:	9701      	str	r7, [sp, #4]
     9b0:	9f01      	ldr	r7, [sp, #4]
     9b2:	e7f5      	b.n	9a0 <SPI_IO16.isra.0+0x34>

000009b4 <SPI_IO8.isra.0>:
     9b4:	b5f7      	push	{r0, r1, r2, r4, r5, r6, r7, lr}
     9b6:	2400      	movs	r4, #0
     9b8:	2501      	movs	r5, #1
     9ba:	f240 1600 	movw	r6, #256	@ 0x100
     9be:	429c      	cmp	r4, r3
     9c0:	d102      	bne.n	9c8 <SPI_IO8.isra.0+0x14>
     9c2:	f003 fbe5 	bl	4190 <SPI_ClearRxFIFO>
     9c6:	bdf7      	pop	{r0, r1, r2, r4, r5, r6, r7, pc}
     9c8:	b179      	cbz	r1, 9ea <SPI_IO8.isra.0+0x36>
     9ca:	5d0f      	ldrb	r7, [r1, r4]
     9cc:	6207      	str	r7, [r0, #32]
     9ce:	6947      	ldr	r7, [r0, #20]
     9d0:	422f      	tst	r7, r5
     9d2:	d1fc      	bne.n	9ce <SPI_IO8.isra.0+0x1a>
     9d4:	6947      	ldr	r7, [r0, #20]
     9d6:	4237      	tst	r7, r6
     9d8:	d1fc      	bne.n	9d4 <SPI_IO8.isra.0+0x20>
     9da:	6b07      	ldr	r7, [r0, #48]	@ 0x30
     9dc:	b13a      	cbz	r2, 9ee <SPI_IO8.isra.0+0x3a>
     9de:	5517      	strb	r7, [r2, r4]
     9e0:	6947      	ldr	r7, [r0, #20]
     9e2:	422f      	tst	r7, r5
     9e4:	d1fc      	bne.n	9e0 <SPI_IO8.isra.0+0x2c>
     9e6:	3401      	adds	r4, #1
     9e8:	e7e9      	b.n	9be <SPI_IO8.isra.0+0xa>
     9ea:	6201      	str	r1, [r0, #32]
     9ec:	e7ef      	b.n	9ce <SPI_IO8.isra.0+0x1a>
     9ee:	9701      	str	r7, [sp, #4]
     9f0:	9f01      	ldr	r7, [sp, #4]
     9f2:	e7f5      	b.n	9e0 <SPI_IO8.isra.0+0x2c>

000009f4 <uart_irq_setup>:
     9f4:	b5f8      	push	{r3, r4, r5, r6, r7, lr}
     9f6:	001e      	movs	r6, r3
     9f8:	2324      	movs	r3, #36	@ 0x24
     9fa:	4343      	muls	r3, r0
     9fc:	4a0e      	ldr	r2, [pc, #56]	@ (a38 <uart_irq_setup+0x44>)
     9fe:	000d      	movs	r5, r1
     a00:	589f      	ldr	r7, [r3, r2]
     a02:	490e      	ldr	r1, [pc, #56]	@ (a3c <uart_irq_setup+0x48>)
     a04:	0038      	movs	r0, r7
     a06:	f000 fdf2 	bl	15ee <find_mod_desc>
     a0a:	0004      	movs	r4, r0
     a0c:	b180      	cbz	r0, a30 <uart_irq_setup+0x3c>
     a0e:	2014      	movs	r0, #20
     a10:	0031      	movs	r1, r6
     a12:	5620      	ldrsb	r0, [r4, r0]
     a14:	f7ff fe90 	bl	738 <__NVIC_SetVector>
     a18:	2014      	movs	r0, #20
     a1a:	5620      	ldrsb	r0, [r4, r0]
     a1c:	f7ff fe94 	bl	748 <__NVIC_EnableIRQ>
     a20:	b10d      	cbz	r5, a26 <uart_irq_setup+0x32>
     a22:	2000      	movs	r0, #0
     a24:	bdf8      	pop	{r3, r4, r5, r6, r7, pc}
     a26:	2101      	movs	r1, #1
     a28:	0038      	movs	r0, r7
     a2a:	f003 fbdf 	bl	41ec <UART_EnableInt>
     a2e:	e7f8      	b.n	a22 <uart_irq_setup+0x2e>
     a30:	2001      	movs	r0, #1
     a32:	4240      	negs	r0, r0
     a34:	e7f6      	b.n	a24 <uart_irq_setup+0x30>
     a36:	46c0      	nop			@ (mov r8, r8)
     a38:	00005ad8 	ldrdeq	r5, [r0], -r8
     a3c:	000057d4 	ldrdeq	r5, [r0], -r4

00000a40 <uart_fini>:
     a40:	b570      	push	{r4, r5, r6, lr}
     a42:	2805      	cmp	r0, #5
     a44:	d817      	bhi.n	a76 <uart_fini+0x36>
     a46:	4b0c      	ldr	r3, [pc, #48]	@ (a78 <uart_fini+0x38>)
     a48:	681b      	ldr	r3, [r3, #0]
     a4a:	4283      	cmp	r3, r0
     a4c:	dd13      	ble.n	a76 <uart_fini+0x36>
     a4e:	2324      	movs	r3, #36	@ 0x24
     a50:	4343      	muls	r3, r0
     a52:	4a0a      	ldr	r2, [pc, #40]	@ (a7c <uart_fini+0x3c>)
     a54:	490a      	ldr	r1, [pc, #40]	@ (a80 <uart_fini+0x40>)
     a56:	589d      	ldr	r5, [r3, r2]
     a58:	0028      	movs	r0, r5
     a5a:	f000 fdc8 	bl	15ee <find_mod_desc>
     a5e:	0004      	movs	r4, r0
     a60:	b148      	cbz	r0, a76 <uart_fini+0x36>
     a62:	2014      	movs	r0, #20
     a64:	5620      	ldrsb	r0, [r4, r0]
     a66:	f7ff fe6f 	bl	748 <__NVIC_EnableIRQ>
     a6a:	0028      	movs	r0, r5
     a6c:	f003 fbba 	bl	41e4 <UART_Close>
     a70:	6860      	ldr	r0, [r4, #4]
     a72:	f000 fd6c 	bl	154e <CLK_DisableModuleClock_S>
     a76:	bd70      	pop	{r4, r5, r6, pc}
     a78:	00005a7c 			@ <UNDEFINED> instruction: 00005a7c
     a7c:	00005ad8 	ldrdeq	r5, [r0], -r8
     a80:	000057d4 	ldrdeq	r5, [r0], -r4

00000a84 <uart_init>:
     a84:	b5f7      	push	{r0, r1, r2, r4, r5, r6, r7, lr}
     a86:	9101      	str	r1, [sp, #4]
     a88:	2805      	cmp	r0, #5
     a8a:	d902      	bls.n	a92 <uart_init+0xe>
     a8c:	2001      	movs	r0, #1
     a8e:	4240      	negs	r0, r0
     a90:	bdfe      	pop	{r1, r2, r3, r4, r5, r6, r7, pc}
     a92:	4b20      	ldr	r3, [pc, #128]	@ (b14 <uart_init+0x90>)
     a94:	681b      	ldr	r3, [r3, #0]
     a96:	4283      	cmp	r3, r0
     a98:	ddf8      	ble.n	a8c <uart_init+0x8>
     a9a:	2424      	movs	r4, #36	@ 0x24
     a9c:	4344      	muls	r4, r0
     a9e:	4b1e      	ldr	r3, [pc, #120]	@ (b18 <uart_init+0x94>)
     aa0:	491e      	ldr	r1, [pc, #120]	@ (b1c <uart_init+0x98>)
     aa2:	58e6      	ldr	r6, [r4, r3]
     aa4:	0030      	movs	r0, r6
     aa6:	f000 fda2 	bl	15ee <find_mod_desc>
     aaa:	0005      	movs	r5, r0
     aac:	2800      	cmp	r0, #0
     aae:	d0ed      	beq.n	a8c <uart_init+0x8>
     ab0:	68c2      	ldr	r2, [r0, #12]
     ab2:	6881      	ldr	r1, [r0, #8]
     ab4:	6840      	ldr	r0, [r0, #4]
     ab6:	f000 fd40 	bl	153a <CLK_SetModuleClock_S>
     aba:	6868      	ldr	r0, [r5, #4]
     abc:	f000 fd42 	bl	1544 <CLK_EnableModuleClock_S>
     ac0:	6928      	ldr	r0, [r5, #16]
     ac2:	f000 fd35 	bl	1530 <SYS_ResetModule_S>
     ac6:	4b14      	ldr	r3, [pc, #80]	@ (b18 <uart_init+0x94>)
     ac8:	4a15      	ldr	r2, [pc, #84]	@ (b20 <uart_init+0x9c>)
     aca:	18e4      	adds	r4, r4, r3
     acc:	68a5      	ldr	r5, [r4, #8]
     ace:	0030      	movs	r0, r6
     ad0:	0029      	movs	r1, r5
     ad2:	f000 fd7d 	bl	15d0 <find_pin_af>
     ad6:	2707      	movs	r7, #7
     ad8:	210f      	movs	r1, #15
     ada:	0002      	movs	r2, r0
     adc:	09a8      	lsrs	r0, r5, #6
     ade:	4029      	ands	r1, r5
     ae0:	4038      	ands	r0, r7
     ae2:	f000 fd39 	bl	1558 <pin_function_s>
     ae6:	68e5      	ldr	r5, [r4, #12]
     ae8:	4a0e      	ldr	r2, [pc, #56]	@ (b24 <uart_init+0xa0>)
     aea:	0029      	movs	r1, r5
     aec:	0030      	movs	r0, r6
     aee:	f000 fd6f 	bl	15d0 <find_pin_af>
     af2:	210f      	movs	r1, #15
     af4:	0002      	movs	r2, r0
     af6:	09a8      	lsrs	r0, r5, #6
     af8:	4029      	ands	r1, r5
     afa:	4038      	ands	r0, r7
     afc:	f000 fd2c 	bl	1558 <pin_function_s>
     b00:	9b01      	ldr	r3, [sp, #4]
     b02:	9901      	ldr	r1, [sp, #4]
     b04:	3301      	adds	r3, #1
     b06:	d100      	bne.n	b0a <uart_init+0x86>
     b08:	6861      	ldr	r1, [r4, #4]
     b0a:	0030      	movs	r0, r6
     b0c:	f003 fb72 	bl	41f4 <UART_Open>
     b10:	2000      	movs	r0, #0
     b12:	e7bd      	b.n	a90 <uart_init+0xc>
     b14:	00005a7c 			@ <UNDEFINED> instruction: 00005a7c
     b18:	00005ad8 	ldrdeq	r5, [r0], -r8
     b1c:	000057d4 	ldrdeq	r5, [r0], -r4
     b20:	00005954 			@ <UNDEFINED> instruction: 00005954
     b24:	0000593c 			@ <UNDEFINED> instruction: 0000593c

00000b28 <uart_write>:
     b28:	b510      	push	{r4, lr}
     b2a:	2805      	cmp	r0, #5
     b2c:	d80a      	bhi.n	b44 <uart_write+0x1c>
     b2e:	4b07      	ldr	r3, [pc, #28]	@ (b4c <uart_write+0x24>)
     b30:	681b      	ldr	r3, [r3, #0]
     b32:	4283      	cmp	r3, r0
     b34:	dd06      	ble.n	b44 <uart_write+0x1c>
     b36:	2324      	movs	r3, #36	@ 0x24
     b38:	4343      	muls	r3, r0
     b3a:	4805      	ldr	r0, [pc, #20]	@ (b50 <uart_write+0x28>)
     b3c:	5818      	ldr	r0, [r3, r0]
     b3e:	f003 fc7b 	bl	4438 <UART_Write>
     b42:	bd10      	pop	{r4, pc}
     b44:	2001      	movs	r0, #1
     b46:	4240      	negs	r0, r0
     b48:	e7fb      	b.n	b42 <uart_write+0x1a>
     b4a:	46c0      	nop			@ (mov r8, r8)
     b4c:	00005a7c 			@ <UNDEFINED> instruction: 00005a7c
     b50:	00005ad8 	ldrdeq	r5, [r0], -r8

00000b54 <uart_read>:
     b54:	b510      	push	{r4, lr}
     b56:	2805      	cmp	r0, #5
     b58:	d80a      	bhi.n	b70 <uart_read+0x1c>
     b5a:	4b07      	ldr	r3, [pc, #28]	@ (b78 <uart_read+0x24>)
     b5c:	681b      	ldr	r3, [r3, #0]
     b5e:	4283      	cmp	r3, r0
     b60:	dd06      	ble.n	b70 <uart_read+0x1c>
     b62:	2324      	movs	r3, #36	@ 0x24
     b64:	4343      	muls	r3, r0
     b66:	4805      	ldr	r0, [pc, #20]	@ (b7c <uart_read+0x28>)
     b68:	5818      	ldr	r0, [r3, r0]
     b6a:	f003 fc4f 	bl	440c <UART_Read>
     b6e:	bd10      	pop	{r4, pc}
     b70:	2001      	movs	r0, #1
     b72:	4240      	negs	r0, r0
     b74:	e7fb      	b.n	b6e <uart_read+0x1a>
     b76:	46c0      	nop			@ (mov r8, r8)
     b78:	00005a7c 			@ <UNDEFINED> instruction: 00005a7c
     b7c:	00005ad8 	ldrdeq	r5, [r0], -r8

00000b80 <uart_close>:
     b80:	b510      	push	{r4, lr}
     b82:	2805      	cmp	r0, #5
     b84:	d902      	bls.n	b8c <uart_close+0xc>
     b86:	2001      	movs	r0, #1
     b88:	4240      	negs	r0, r0
     b8a:	bd10      	pop	{r4, pc}
     b8c:	4b0c      	ldr	r3, [pc, #48]	@ (bc0 <uart_close+0x40>)
     b8e:	681b      	ldr	r3, [r3, #0]
     b90:	4283      	cmp	r3, r0
     b92:	ddf8      	ble.n	b86 <uart_close+0x6>
     b94:	2324      	movs	r3, #36	@ 0x24
     b96:	4343      	muls	r3, r0
     b98:	4a0a      	ldr	r2, [pc, #40]	@ (bc4 <uart_close+0x44>)
     b9a:	490b      	ldr	r1, [pc, #44]	@ (bc8 <uart_close+0x48>)
     b9c:	5898      	ldr	r0, [r3, r2]
     b9e:	f000 fd26 	bl	15ee <find_mod_desc>
     ba2:	0004      	movs	r4, r0
     ba4:	2800      	cmp	r0, #0
     ba6:	d0ee      	beq.n	b86 <uart_close+0x6>
     ba8:	6800      	ldr	r0, [r0, #0]
     baa:	f003 fb1b 	bl	41e4 <UART_Close>
     bae:	2014      	movs	r0, #20
     bb0:	5620      	ldrsb	r0, [r4, r0]
     bb2:	f7ff fdd7 	bl	764 <__NVIC_DisableIRQ>
     bb6:	6860      	ldr	r0, [r4, #4]
     bb8:	f000 fcc9 	bl	154e <CLK_DisableModuleClock_S>
     bbc:	2000      	movs	r0, #0
     bbe:	e7e4      	b.n	b8a <uart_close+0xa>
     bc0:	00005a7c 			@ <UNDEFINED> instruction: 00005a7c
     bc4:	00005ad8 	ldrdeq	r5, [r0], -r8
     bc8:	000057d4 	ldrdeq	r5, [r0], -r4

00000bcc <timer_fini>:
     bcc:	4b0c      	ldr	r3, [pc, #48]	@ (c00 <timer_fini+0x34>)
     bce:	b570      	push	{r4, r5, r6, lr}
     bd0:	681b      	ldr	r3, [r3, #0]
     bd2:	4283      	cmp	r3, r0
     bd4:	db13      	blt.n	bfe <timer_fini+0x32>
     bd6:	230c      	movs	r3, #12
     bd8:	4343      	muls	r3, r0
     bda:	4a0a      	ldr	r2, [pc, #40]	@ (c04 <timer_fini+0x38>)
     bdc:	490a      	ldr	r1, [pc, #40]	@ (c08 <timer_fini+0x3c>)
     bde:	589d      	ldr	r5, [r3, r2]
     be0:	0028      	movs	r0, r5
     be2:	f000 fd04 	bl	15ee <find_mod_desc>
     be6:	0004      	movs	r4, r0
     be8:	b148      	cbz	r0, bfe <timer_fini+0x32>
     bea:	2014      	movs	r0, #20
     bec:	5620      	ldrsb	r0, [r4, r0]
     bee:	f7ff fdb9 	bl	764 <__NVIC_DisableIRQ>
     bf2:	0028      	movs	r0, r5
     bf4:	f003 faf2 	bl	41dc <TIMER_Close>
     bf8:	6860      	ldr	r0, [r4, #4]
     bfa:	f000 fca8 	bl	154e <CLK_DisableModuleClock_S>
     bfe:	bd70      	pop	{r4, r5, r6, pc}
     c00:	00005a74 			@ <UNDEFINED> instruction: 00005a74
     c04:	00005a80 			@ <UNDEFINED> instruction: 00005a80
     c08:	00005684 			@ <UNDEFINED> instruction: 00005684

00000c0c <timer_stop>:
     c0c:	4b08      	ldr	r3, [pc, #32]	@ (c30 <timer_stop+0x24>)
     c0e:	681b      	ldr	r3, [r3, #0]
     c10:	4283      	cmp	r3, r0
     c12:	db09      	blt.n	c28 <timer_stop+0x1c>
     c14:	230c      	movs	r3, #12
     c16:	4343      	muls	r3, r0
     c18:	2000      	movs	r0, #0
     c1a:	4a06      	ldr	r2, [pc, #24]	@ (c34 <timer_stop+0x28>)
     c1c:	4906      	ldr	r1, [pc, #24]	@ (c38 <timer_stop+0x2c>)
     c1e:	589a      	ldr	r2, [r3, r2]
     c20:	6813      	ldr	r3, [r2, #0]
     c22:	400b      	ands	r3, r1
     c24:	6013      	str	r3, [r2, #0]
     c26:	4770      	bx	lr
     c28:	2001      	movs	r0, #1
     c2a:	4240      	negs	r0, r0
     c2c:	e7fb      	b.n	c26 <timer_stop+0x1a>
     c2e:	46c0      	nop			@ (mov r8, r8)
     c30:	00005a74 			@ <UNDEFINED> instruction: 00005a74
     c34:	00005a80 			@ <UNDEFINED> instruction: 00005a80
     c38:	bfffffff 			@ <UNDEFINED> instruction: bfffffff

00000c3c <spi_fini>:
     c3c:	b570      	push	{r4, r5, r6, lr}
     c3e:	2803      	cmp	r0, #3
     c40:	d817      	bhi.n	c72 <spi_fini+0x36>
     c42:	4b0c      	ldr	r3, [pc, #48]	@ (c74 <spi_fini+0x38>)
     c44:	681b      	ldr	r3, [r3, #0]
     c46:	4283      	cmp	r3, r0
     c48:	dd13      	ble.n	c72 <spi_fini+0x36>
     c4a:	2330      	movs	r3, #48	@ 0x30
     c4c:	4343      	muls	r3, r0
     c4e:	4a0a      	ldr	r2, [pc, #40]	@ (c78 <spi_fini+0x3c>)
     c50:	490a      	ldr	r1, [pc, #40]	@ (c7c <spi_fini+0x40>)
     c52:	589d      	ldr	r5, [r3, r2]
     c54:	0028      	movs	r0, r5
     c56:	f000 fcca 	bl	15ee <find_mod_desc>
     c5a:	0004      	movs	r4, r0
     c5c:	b148      	cbz	r0, c72 <spi_fini+0x36>
     c5e:	2014      	movs	r0, #20
     c60:	5620      	ldrsb	r0, [r4, r0]
     c62:	f7ff fd71 	bl	748 <__NVIC_EnableIRQ>
     c66:	0028      	movs	r0, r5
     c68:	f003 fa8c 	bl	4184 <SPI_Close>
     c6c:	6860      	ldr	r0, [r4, #4]
     c6e:	f000 fc6e 	bl	154e <CLK_DisableModuleClock_S>
     c72:	bd70      	pop	{r4, r5, r6, pc}
     c74:	00005a78 			@ <UNDEFINED> instruction: 00005a78
     c78:	00005aa0 			@ <UNDEFINED> instruction: 00005aa0
     c7c:	0000575c 			@ <UNDEFINED> instruction: 0000575c

00000c80 <spi_init>:
     c80:	b5f0      	push	{r4, r5, r6, r7, lr}
     c82:	0006      	movs	r6, r0
     c84:	b089      	sub	sp, #36	@ 0x24
     c86:	2803      	cmp	r0, #3
     c88:	d903      	bls.n	c92 <spi_init+0x12>
     c8a:	2001      	movs	r0, #1
     c8c:	4240      	negs	r0, r0
     c8e:	b009      	add	sp, #36	@ 0x24
     c90:	bdf0      	pop	{r4, r5, r6, r7, pc}
     c92:	4b73      	ldr	r3, [pc, #460]	@ (e60 <spi_init+0x1e0>)
     c94:	681b      	ldr	r3, [r3, #0]
     c96:	4283      	cmp	r3, r0
     c98:	ddf7      	ble.n	c8a <spi_init+0xa>
     c9a:	2330      	movs	r3, #48	@ 0x30
     c9c:	4343      	muls	r3, r0
     c9e:	4a71      	ldr	r2, [pc, #452]	@ (e64 <spi_init+0x1e4>)
     ca0:	589f      	ldr	r7, [r3, r2]
     ca2:	189b      	adds	r3, r3, r2
     ca4:	791b      	ldrb	r3, [r3, #4]
     ca6:	9306      	str	r3, [sp, #24]
     ca8:	2b01      	cmp	r3, #1
     caa:	d179      	bne.n	da0 <spi_init+0x120>
     cac:	496e      	ldr	r1, [pc, #440]	@ (e68 <spi_init+0x1e8>)
     cae:	0038      	movs	r0, r7
     cb0:	f000 fc9d 	bl	15ee <find_mod_desc>
     cb4:	0005      	movs	r5, r0
     cb6:	2800      	cmp	r0, #0
     cb8:	d0e7      	beq.n	c8a <spi_init+0xa>
     cba:	2200      	movs	r2, #0
     cbc:	496b      	ldr	r1, [pc, #428]	@ (e6c <spi_init+0x1ec>)
     cbe:	00b3      	lsls	r3, r6, #2
     cc0:	505a      	str	r2, [r3, r1]
     cc2:	2330      	movs	r3, #48	@ 0x30
     cc4:	4373      	muls	r3, r6
     cc6:	4967      	ldr	r1, [pc, #412]	@ (e64 <spi_init+0x1e4>)
     cc8:	185b      	adds	r3, r3, r1
     cca:	69d9      	ldr	r1, [r3, #28]
     ccc:	9105      	str	r1, [sp, #20]
     cce:	6a59      	ldr	r1, [r3, #36]	@ 0x24
     cd0:	9103      	str	r1, [sp, #12]
     cd2:	b139      	cbz	r1, ce4 <spi_init+0x64>
     cd4:	6a1b      	ldr	r3, [r3, #32]
     cd6:	9c05      	ldr	r4, [sp, #20]
     cd8:	9204      	str	r2, [sp, #16]
     cda:	9307      	str	r3, [sp, #28]
     cdc:	9b07      	ldr	r3, [sp, #28]
     cde:	9a04      	ldr	r2, [sp, #16]
     ce0:	4293      	cmp	r3, r2
     ce2:	dc5f      	bgt.n	da4 <spi_init+0x124>
     ce4:	2430      	movs	r4, #48	@ 0x30
     ce6:	68a9      	ldr	r1, [r5, #8]
     ce8:	68ea      	ldr	r2, [r5, #12]
     cea:	6868      	ldr	r0, [r5, #4]
     cec:	f000 fc25 	bl	153a <CLK_SetModuleClock_S>
     cf0:	4374      	muls	r4, r6
     cf2:	6868      	ldr	r0, [r5, #4]
     cf4:	f000 fc26 	bl	1544 <CLK_EnableModuleClock_S>
     cf8:	6928      	ldr	r0, [r5, #16]
     cfa:	f000 fc19 	bl	1530 <SYS_ResetModule_S>
     cfe:	4b59      	ldr	r3, [pc, #356]	@ (e64 <spi_init+0x1e4>)
     d00:	250f      	movs	r5, #15
     d02:	18e4      	adds	r4, r4, r3
     d04:	2307      	movs	r3, #7
     d06:	68a1      	ldr	r1, [r4, #8]
     d08:	098e      	lsrs	r6, r1, #6
     d0a:	401e      	ands	r6, r3
     d0c:	000b      	movs	r3, r1
     d0e:	402b      	ands	r3, r5
     d10:	9304      	str	r3, [sp, #16]
     d12:	9b06      	ldr	r3, [sp, #24]
     d14:	2b01      	cmp	r3, #1
     d16:	d15e      	bne.n	dd6 <spi_init+0x156>
     d18:	4a55      	ldr	r2, [pc, #340]	@ (e70 <spi_init+0x1f0>)
     d1a:	0038      	movs	r0, r7
     d1c:	f000 fc58 	bl	15d0 <find_pin_af>
     d20:	9904      	ldr	r1, [sp, #16]
     d22:	0002      	movs	r2, r0
     d24:	0030      	movs	r0, r6
     d26:	f000 fc17 	bl	1558 <pin_function_s>
     d2a:	68e6      	ldr	r6, [r4, #12]
     d2c:	4a51      	ldr	r2, [pc, #324]	@ (e74 <spi_init+0x1f4>)
     d2e:	0031      	movs	r1, r6
     d30:	0038      	movs	r0, r7
     d32:	f000 fc4d 	bl	15d0 <find_pin_af>
     d36:	2307      	movs	r3, #7
     d38:	0031      	movs	r1, r6
     d3a:	0002      	movs	r2, r0
     d3c:	09b0      	lsrs	r0, r6, #6
     d3e:	4018      	ands	r0, r3
     d40:	4029      	ands	r1, r5
     d42:	f000 fc09 	bl	1558 <pin_function_s>
     d46:	69a6      	ldr	r6, [r4, #24]
     d48:	4a4b      	ldr	r2, [pc, #300]	@ (e78 <spi_init+0x1f8>)
     d4a:	0031      	movs	r1, r6
     d4c:	0038      	movs	r0, r7
     d4e:	f000 fc3f 	bl	15d0 <find_pin_af>
     d52:	2307      	movs	r3, #7
     d54:	0031      	movs	r1, r6
     d56:	0002      	movs	r2, r0
     d58:	09b0      	lsrs	r0, r6, #6
     d5a:	4018      	ands	r0, r3
     d5c:	4029      	ands	r1, r5
     d5e:	f000 fbfb 	bl	1558 <pin_function_s>
     d62:	9b03      	ldr	r3, [sp, #12]
     d64:	2b00      	cmp	r3, #0
     d66:	d15d      	bne.n	e24 <spi_init+0x1a4>
     d68:	9b05      	ldr	r3, [sp, #20]
     d6a:	0038      	movs	r0, r7
     d6c:	681e      	ldr	r6, [r3, #0]
     d6e:	4a43      	ldr	r2, [pc, #268]	@ (e7c <spi_init+0x1fc>)
     d70:	0031      	movs	r1, r6
     d72:	f000 fc2d 	bl	15d0 <find_pin_af>
     d76:	2307      	movs	r3, #7
     d78:	0029      	movs	r1, r5
     d7a:	0002      	movs	r2, r0
     d7c:	09b0      	lsrs	r0, r6, #6
     d7e:	4031      	ands	r1, r6
     d80:	4018      	ands	r0, r3
     d82:	f000 fbe9 	bl	1558 <pin_function_s>
     d86:	6aa2      	ldr	r2, [r4, #40]	@ 0x28
     d88:	493d      	ldr	r1, [pc, #244]	@ (e80 <spi_init+0x200>)
     d8a:	0092      	lsls	r2, r2, #2
     d8c:	5852      	ldr	r2, [r2, r1]
     d8e:	2180      	movs	r1, #128	@ 0x80
     d90:	9b03      	ldr	r3, [sp, #12]
     d92:	0038      	movs	r0, r7
     d94:	9300      	str	r3, [sp, #0]
     d96:	02c9      	lsls	r1, r1, #11
     d98:	6ae3      	ldr	r3, [r4, #44]	@ 0x2c
     d9a:	f002 fe4f 	bl	3a3c <QSPI_Open>
     d9e:	e041      	b.n	e24 <spi_init+0x1a4>
     da0:	4938      	ldr	r1, [pc, #224]	@ (e84 <spi_init+0x204>)
     da2:	e784      	b.n	cae <spi_init+0x2e>
     da4:	230f      	movs	r3, #15
     da6:	2101      	movs	r1, #1
     da8:	6820      	ldr	r0, [r4, #0]
     daa:	2201      	movs	r2, #1
     dac:	4003      	ands	r3, r0
     dae:	4099      	lsls	r1, r3
     db0:	230f      	movs	r3, #15
     db2:	4398      	bics	r0, r3
     db4:	f002 fdf2 	bl	399c <GPIO_SetMode>
     db8:	213c      	movs	r1, #60	@ 0x3c
     dba:	cc04      	ldmia	r4!, {r2}
     dbc:	0093      	lsls	r3, r2, #2
     dbe:	400b      	ands	r3, r1
     dc0:	4931      	ldr	r1, [pc, #196]	@ (e88 <spi_init+0x208>)
     dc2:	400a      	ands	r2, r1
     dc4:	4313      	orrs	r3, r2
     dc6:	4a31      	ldr	r2, [pc, #196]	@ (e8c <spi_init+0x20c>)
     dc8:	189b      	adds	r3, r3, r2
     dca:	2201      	movs	r2, #1
     dcc:	601a      	str	r2, [r3, #0]
     dce:	9b04      	ldr	r3, [sp, #16]
     dd0:	189b      	adds	r3, r3, r2
     dd2:	9304      	str	r3, [sp, #16]
     dd4:	e782      	b.n	cdc <spi_init+0x5c>
     dd6:	4a2e      	ldr	r2, [pc, #184]	@ (e90 <spi_init+0x210>)
     dd8:	0038      	movs	r0, r7
     dda:	f000 fbf9 	bl	15d0 <find_pin_af>
     dde:	9904      	ldr	r1, [sp, #16]
     de0:	0002      	movs	r2, r0
     de2:	0030      	movs	r0, r6
     de4:	f000 fbb8 	bl	1558 <pin_function_s>
     de8:	68e6      	ldr	r6, [r4, #12]
     dea:	4a2a      	ldr	r2, [pc, #168]	@ (e94 <spi_init+0x214>)
     dec:	0031      	movs	r1, r6
     dee:	0038      	movs	r0, r7
     df0:	f000 fbee 	bl	15d0 <find_pin_af>
     df4:	2307      	movs	r3, #7
     df6:	0031      	movs	r1, r6
     df8:	0002      	movs	r2, r0
     dfa:	09b0      	lsrs	r0, r6, #6
     dfc:	4018      	ands	r0, r3
     dfe:	4029      	ands	r1, r5
     e00:	f000 fbaa 	bl	1558 <pin_function_s>
     e04:	69a6      	ldr	r6, [r4, #24]
     e06:	4a24      	ldr	r2, [pc, #144]	@ (e98 <spi_init+0x218>)
     e08:	0031      	movs	r1, r6
     e0a:	0038      	movs	r0, r7
     e0c:	f000 fbe0 	bl	15d0 <find_pin_af>
     e10:	2307      	movs	r3, #7
     e12:	0031      	movs	r1, r6
     e14:	0002      	movs	r2, r0
     e16:	09b0      	lsrs	r0, r6, #6
     e18:	4018      	ands	r0, r3
     e1a:	4029      	ands	r1, r5
     e1c:	f000 fb9c 	bl	1558 <pin_function_s>
     e20:	9b03      	ldr	r3, [sp, #12]
     e22:	b10b      	cbz	r3, e28 <spi_init+0x1a8>
     e24:	2000      	movs	r0, #0
     e26:	e732      	b.n	c8e <spi_init+0xe>
     e28:	9b05      	ldr	r3, [sp, #20]
     e2a:	0038      	movs	r0, r7
     e2c:	681e      	ldr	r6, [r3, #0]
     e2e:	4a1b      	ldr	r2, [pc, #108]	@ (e9c <spi_init+0x21c>)
     e30:	0031      	movs	r1, r6
     e32:	f000 fbcd 	bl	15d0 <find_pin_af>
     e36:	2307      	movs	r3, #7
     e38:	0029      	movs	r1, r5
     e3a:	0002      	movs	r2, r0
     e3c:	09b0      	lsrs	r0, r6, #6
     e3e:	4031      	ands	r1, r6
     e40:	4018      	ands	r0, r3
     e42:	f000 fb89 	bl	1558 <pin_function_s>
     e46:	6aa2      	ldr	r2, [r4, #40]	@ 0x28
     e48:	4915      	ldr	r1, [pc, #84]	@ (ea0 <spi_init+0x220>)
     e4a:	0092      	lsls	r2, r2, #2
     e4c:	5852      	ldr	r2, [r2, r1]
     e4e:	2180      	movs	r1, #128	@ 0x80
     e50:	9b03      	ldr	r3, [sp, #12]
     e52:	0038      	movs	r0, r7
     e54:	9300      	str	r3, [sp, #0]
     e56:	02c9      	lsls	r1, r1, #11
     e58:	6ae3      	ldr	r3, [r4, #44]	@ 0x2c
     e5a:	f002 ff07 	bl	3c6c <SPI_Open>
     e5e:	e7e1      	b.n	e24 <spi_init+0x1a4>
     e60:	00005a78 			@ <UNDEFINED> instruction: 00005a78
     e64:	00005aa0 			@ <UNDEFINED> instruction: 00005aa0
     e68:	0000572c 			@ <UNDEFINED> instruction: 0000572c
     e6c:	20000e84 			@ <UNDEFINED> instruction: 20000e84
     e70:	000058c4 			@ <UNDEFINED> instruction: 000058c4
     e74:	000058ac 			@ <UNDEFINED> instruction: 000058ac
     e78:	0000587c 			@ <UNDEFINED> instruction: 0000587c
     e7c:	00005894 			@ <UNDEFINED> instruction: 00005894
     e80:	00004fbc 			@ <UNDEFINED> instruction: 00004fbc
     e84:	0000575c 			@ <UNDEFINED> instruction: 0000575c
     e88:	100001c0 			@ <UNDEFINED> instruction: 100001c0
     e8c:	40004800 			@ <UNDEFINED> instruction: 40004800
     e90:	00005924 			@ <UNDEFINED> instruction: 00005924
     e94:	0000590c 			@ <UNDEFINED> instruction: 0000590c
     e98:	000058f4 	strdeq	r5, [r0], -r4
     e9c:	000058dc 	ldrdeq	r5, [r0], -ip
     ea0:	00004fbc 			@ <UNDEFINED> instruction: 00004fbc

00000ea4 <spi_acquire>:
     ea4:	6803      	ldr	r3, [r0, #0]
     ea6:	b5f7      	push	{r0, r1, r2, r4, r5, r6, r7, lr}
     ea8:	2b03      	cmp	r3, #3
     eaa:	d831      	bhi.n	f10 <spi_acquire+0x6c>
     eac:	4a1a      	ldr	r2, [pc, #104]	@ (f18 <spi_acquire+0x74>)
     eae:	6812      	ldr	r2, [r2, #0]
     eb0:	4293      	cmp	r3, r2
     eb2:	da2d      	bge.n	f10 <spi_acquire+0x6c>
     eb4:	2130      	movs	r1, #48	@ 0x30
     eb6:	4359      	muls	r1, r3
     eb8:	4a18      	ldr	r2, [pc, #96]	@ (f1c <spi_acquire+0x78>)
     eba:	188e      	adds	r6, r1, r2
     ebc:	6a72      	ldr	r2, [r6, #36]	@ 0x24
     ebe:	b33a      	cbz	r2, f10 <spi_acquire+0x6c>
     ec0:	6882      	ldr	r2, [r0, #8]
     ec2:	2a03      	cmp	r2, #3
     ec4:	dc24      	bgt.n	f10 <spi_acquire+0x6c>
     ec6:	4d16      	ldr	r5, [pc, #88]	@ (f20 <spi_acquire+0x7c>)
     ec8:	009b      	lsls	r3, r3, #2
     eca:	595c      	ldr	r4, [r3, r5]
     ecc:	b104      	cbz	r4, ed0 <spi_acquire+0x2c>
     ece:	e7fe      	b.n	ece <spi_acquire+0x2a>
     ed0:	2701      	movs	r7, #1
     ed2:	515f      	str	r7, [r3, r5]
     ed4:	4b11      	ldr	r3, [pc, #68]	@ (f1c <spi_acquire+0x78>)
     ed6:	58cd      	ldr	r5, [r1, r3]
     ed8:	68c3      	ldr	r3, [r0, #12]
     eda:	6901      	ldr	r1, [r0, #16]
     edc:	7930      	ldrb	r0, [r6, #4]
     ede:	42b8      	cmp	r0, r7
     ee0:	d10a      	bne.n	ef8 <spi_acquire+0x54>
     ee2:	9100      	str	r1, [sp, #0]
     ee4:	2204      	movs	r2, #4
     ee6:	0021      	movs	r1, r4
     ee8:	0028      	movs	r0, r5
     eea:	f002 fda7 	bl	3a3c <QSPI_Open>
     eee:	0028      	movs	r0, r5
     ef0:	f002 feb6 	bl	3c60 <QSPI_DisableAutoSS>
     ef4:	0020      	movs	r0, r4
     ef6:	bdfe      	pop	{r1, r2, r3, r4, r5, r6, r7, pc}
     ef8:	9100      	str	r1, [sp, #0]
     efa:	490a      	ldr	r1, [pc, #40]	@ (f24 <spi_acquire+0x80>)
     efc:	0092      	lsls	r2, r2, #2
     efe:	5852      	ldr	r2, [r2, r1]
     f00:	0028      	movs	r0, r5
     f02:	0021      	movs	r1, r4
     f04:	f002 feb2 	bl	3c6c <SPI_Open>
     f08:	0028      	movs	r0, r5
     f0a:	f003 f947 	bl	419c <SPI_DisableAutoSS>
     f0e:	e7f1      	b.n	ef4 <spi_acquire+0x50>
     f10:	2401      	movs	r4, #1
     f12:	4264      	negs	r4, r4
     f14:	e7ee      	b.n	ef4 <spi_acquire+0x50>
     f16:	46c0      	nop			@ (mov r8, r8)
     f18:	00005a78 			@ <UNDEFINED> instruction: 00005a78
     f1c:	00005aa0 			@ <UNDEFINED> instruction: 00005aa0
     f20:	20000e84 			@ <UNDEFINED> instruction: 20000e84
     f24:	00004fbc 			@ <UNDEFINED> instruction: 00004fbc

00000f28 <spi_release>:
     f28:	6802      	ldr	r2, [r0, #0]
     f2a:	b510      	push	{r4, lr}
     f2c:	0004      	movs	r4, r0
     f2e:	2a03      	cmp	r2, #3
     f30:	d819      	bhi.n	f66 <spi_release+0x3e>
     f32:	4b0e      	ldr	r3, [pc, #56]	@ (f6c <spi_release+0x44>)
     f34:	681b      	ldr	r3, [r3, #0]
     f36:	429a      	cmp	r2, r3
     f38:	da15      	bge.n	f66 <spi_release+0x3e>
     f3a:	2330      	movs	r3, #48	@ 0x30
     f3c:	4353      	muls	r3, r2
     f3e:	4a0c      	ldr	r2, [pc, #48]	@ (f70 <spi_release+0x48>)
     f40:	189a      	adds	r2, r3, r2
     f42:	6a51      	ldr	r1, [r2, #36]	@ 0x24
     f44:	b179      	cbz	r1, f66 <spi_release+0x3e>
     f46:	490a      	ldr	r1, [pc, #40]	@ (f70 <spi_release+0x48>)
     f48:	5858      	ldr	r0, [r3, r1]
     f4a:	7913      	ldrb	r3, [r2, #4]
     f4c:	2b01      	cmp	r3, #1
     f4e:	d107      	bne.n	f60 <spi_release+0x38>
     f50:	f002 fe7a 	bl	3c48 <QSPI_Close>
     f54:	2000      	movs	r0, #0
     f56:	6823      	ldr	r3, [r4, #0]
     f58:	4a06      	ldr	r2, [pc, #24]	@ (f74 <spi_release+0x4c>)
     f5a:	009b      	lsls	r3, r3, #2
     f5c:	5098      	str	r0, [r3, r2]
     f5e:	bd10      	pop	{r4, pc}
     f60:	f003 f910 	bl	4184 <SPI_Close>
     f64:	e7f6      	b.n	f54 <spi_release+0x2c>
     f66:	2001      	movs	r0, #1
     f68:	4240      	negs	r0, r0
     f6a:	e7f8      	b.n	f5e <spi_release+0x36>
     f6c:	00005a78 			@ <UNDEFINED> instruction: 00005a78
     f70:	00005aa0 			@ <UNDEFINED> instruction: 00005aa0
     f74:	20000e84 			@ <UNDEFINED> instruction: 20000e84

00000f78 <spi_transfer_bytes>:
     f78:	b5f7      	push	{r0, r1, r2, r4, r5, r6, r7, lr}
     f7a:	6807      	ldr	r7, [r0, #0]
     f7c:	0006      	movs	r6, r0
     f7e:	001d      	movs	r5, r3
     f80:	9101      	str	r1, [sp, #4]
     f82:	2f03      	cmp	r7, #3
     f84:	d900      	bls.n	f88 <spi_transfer_bytes+0x10>
     f86:	e0b2      	b.n	10ee <spi_transfer_bytes+0x176>
     f88:	4b5a      	ldr	r3, [pc, #360]	@ (10f4 <spi_transfer_bytes+0x17c>)
     f8a:	681b      	ldr	r3, [r3, #0]
     f8c:	429f      	cmp	r7, r3
     f8e:	db00      	blt.n	f92 <spi_transfer_bytes+0x1a>
     f90:	e0ad      	b.n	10ee <spi_transfer_bytes+0x176>
     f92:	2330      	movs	r3, #48	@ 0x30
     f94:	437b      	muls	r3, r7
     f96:	4958      	ldr	r1, [pc, #352]	@ (10f8 <spi_transfer_bytes+0x180>)
     f98:	585c      	ldr	r4, [r3, r1]
     f9a:	6871      	ldr	r1, [r6, #4]
     f9c:	4e56      	ldr	r6, [pc, #344]	@ (10f8 <spi_transfer_bytes+0x180>)
     f9e:	6820      	ldr	r0, [r4, #0]
     fa0:	199b      	adds	r3, r3, r6
     fa2:	6a1e      	ldr	r6, [r3, #32]
     fa4:	04c0      	lsls	r0, r0, #19
     fa6:	0ec0      	lsrs	r0, r0, #27
     fa8:	42b1      	cmp	r1, r6
     faa:	db00      	blt.n	fae <spi_transfer_bytes+0x36>
     fac:	e09f      	b.n	10ee <spi_transfer_bytes+0x176>
     fae:	69db      	ldr	r3, [r3, #28]
     fb0:	0089      	lsls	r1, r1, #2
     fb2:	58cb      	ldr	r3, [r1, r3]
     fb4:	b12a      	cbz	r2, fc2 <spi_transfer_bytes+0x4a>
     fb6:	b125      	cbz	r5, fc2 <spi_transfer_bytes+0x4a>
     fb8:	686e      	ldr	r6, [r5, #4]
     fba:	6851      	ldr	r1, [r2, #4]
     fbc:	428e      	cmp	r6, r1
     fbe:	d200      	bcs.n	fc2 <spi_transfer_bytes+0x4a>
     fc0:	e095      	b.n	10ee <spi_transfer_bytes+0x176>
     fc2:	213c      	movs	r1, #60	@ 0x3c
     fc4:	009e      	lsls	r6, r3, #2
     fc6:	400e      	ands	r6, r1
     fc8:	494c      	ldr	r1, [pc, #304]	@ (10fc <spi_transfer_bytes+0x184>)
     fca:	400b      	ands	r3, r1
     fcc:	431e      	orrs	r6, r3
     fce:	4b4c      	ldr	r3, [pc, #304]	@ (1100 <spi_transfer_bytes+0x188>)
     fd0:	18f6      	adds	r6, r6, r3
     fd2:	6833      	ldr	r3, [r6, #0]
     fd4:	b10b      	cbz	r3, fda <spi_transfer_bytes+0x62>
     fd6:	2300      	movs	r3, #0
     fd8:	6033      	str	r3, [r6, #0]
     fda:	2a00      	cmp	r2, #0
     fdc:	d100      	bne.n	fe0 <spi_transfer_bytes+0x68>
     fde:	e078      	b.n	10d2 <spi_transfer_bytes+0x15a>
     fe0:	2330      	movs	r3, #48	@ 0x30
     fe2:	437b      	muls	r3, r7
     fe4:	4944      	ldr	r1, [pc, #272]	@ (10f8 <spi_transfer_bytes+0x180>)
     fe6:	185b      	adds	r3, r3, r1
     fe8:	791b      	ldrb	r3, [r3, #4]
     fea:	469c      	mov	ip, r3
     fec:	ca0a      	ldmia	r2!, {r1, r3}
     fee:	2d00      	cmp	r5, #0
     ff0:	d040      	beq.n	1074 <spi_transfer_bytes+0xfc>
     ff2:	682a      	ldr	r2, [r5, #0]
     ff4:	2808      	cmp	r0, #8
     ff6:	d813      	bhi.n	1020 <spi_transfer_bytes+0xa8>
     ff8:	4660      	mov	r0, ip
     ffa:	2801      	cmp	r0, #1
     ffc:	d10c      	bne.n	1018 <spi_transfer_bytes+0xa0>
     ffe:	0020      	movs	r0, r4
    1000:	f7ff fc70 	bl	8e4 <QSPI_IO8.isra.0>
    1004:	cd0c      	ldmia	r5!, {r2, r3}
    1006:	2130      	movs	r1, #48	@ 0x30
    1008:	4379      	muls	r1, r7
    100a:	483b      	ldr	r0, [pc, #236]	@ (10f8 <spi_transfer_bytes+0x180>)
    100c:	1809      	adds	r1, r1, r0
    100e:	7909      	ldrb	r1, [r1, #4]
    1010:	2901      	cmp	r1, #1
    1012:	d166      	bne.n	10e2 <spi_transfer_bytes+0x16a>
    1014:	2100      	movs	r1, #0
    1016:	e033      	b.n	1080 <spi_transfer_bytes+0x108>
    1018:	0020      	movs	r0, r4
    101a:	f7ff fccb 	bl	9b4 <SPI_IO8.isra.0>
    101e:	e7f1      	b.n	1004 <spi_transfer_bytes+0x8c>
    1020:	2810      	cmp	r0, #16
    1022:	d813      	bhi.n	104c <spi_transfer_bytes+0xd4>
    1024:	4660      	mov	r0, ip
    1026:	2801      	cmp	r0, #1
    1028:	d10c      	bne.n	1044 <spi_transfer_bytes+0xcc>
    102a:	0020      	movs	r0, r4
    102c:	f7ff fc36 	bl	89c <QSPI_IO16.isra.0>
    1030:	cd0c      	ldmia	r5!, {r2, r3}
    1032:	2130      	movs	r1, #48	@ 0x30
    1034:	4379      	muls	r1, r7
    1036:	4830      	ldr	r0, [pc, #192]	@ (10f8 <spi_transfer_bytes+0x180>)
    1038:	1809      	adds	r1, r1, r0
    103a:	7909      	ldrb	r1, [r1, #4]
    103c:	2901      	cmp	r1, #1
    103e:	d152      	bne.n	10e6 <spi_transfer_bytes+0x16e>
    1040:	2100      	movs	r1, #0
    1042:	e031      	b.n	10a8 <spi_transfer_bytes+0x130>
    1044:	0020      	movs	r0, r4
    1046:	f7ff fc91 	bl	96c <SPI_IO16.isra.0>
    104a:	e7f1      	b.n	1030 <spi_transfer_bytes+0xb8>
    104c:	4660      	mov	r0, ip
    104e:	2801      	cmp	r0, #1
    1050:	d10c      	bne.n	106c <spi_transfer_bytes+0xf4>
    1052:	0020      	movs	r0, r4
    1054:	f7ff fbfe 	bl	854 <QSPI_IO32.isra.0>
    1058:	cd0c      	ldmia	r5!, {r2, r3}
    105a:	2130      	movs	r1, #48	@ 0x30
    105c:	4379      	muls	r1, r7
    105e:	4826      	ldr	r0, [pc, #152]	@ (10f8 <spi_transfer_bytes+0x180>)
    1060:	1809      	adds	r1, r1, r0
    1062:	7909      	ldrb	r1, [r1, #4]
    1064:	2901      	cmp	r1, #1
    1066:	d140      	bne.n	10ea <spi_transfer_bytes+0x172>
    1068:	2100      	movs	r1, #0
    106a:	e029      	b.n	10c0 <spi_transfer_bytes+0x148>
    106c:	0020      	movs	r0, r4
    106e:	f7ff fc59 	bl	924 <SPI_IO32.isra.0>
    1072:	e7f1      	b.n	1058 <spi_transfer_bytes+0xe0>
    1074:	4662      	mov	r2, ip
    1076:	2808      	cmp	r0, #8
    1078:	d811      	bhi.n	109e <spi_transfer_bytes+0x126>
    107a:	2a01      	cmp	r2, #1
    107c:	d10a      	bne.n	1094 <spi_transfer_bytes+0x11c>
    107e:	002a      	movs	r2, r5
    1080:	0020      	movs	r0, r4
    1082:	f7ff fc2f 	bl	8e4 <QSPI_IO8.isra.0>
    1086:	9b01      	ldr	r3, [sp, #4]
    1088:	2b01      	cmp	r3, #1
    108a:	d001      	beq.n	1090 <spi_transfer_bytes+0x118>
    108c:	2301      	movs	r3, #1
    108e:	6033      	str	r3, [r6, #0]
    1090:	2000      	movs	r0, #0
    1092:	bdfe      	pop	{r1, r2, r3, r4, r5, r6, r7, pc}
    1094:	002a      	movs	r2, r5
    1096:	0020      	movs	r0, r4
    1098:	f7ff fc8c 	bl	9b4 <SPI_IO8.isra.0>
    109c:	e7f3      	b.n	1086 <spi_transfer_bytes+0x10e>
    109e:	2810      	cmp	r0, #16
    10a0:	d80b      	bhi.n	10ba <spi_transfer_bytes+0x142>
    10a2:	2a01      	cmp	r2, #1
    10a4:	d104      	bne.n	10b0 <spi_transfer_bytes+0x138>
    10a6:	002a      	movs	r2, r5
    10a8:	0020      	movs	r0, r4
    10aa:	f7ff fbf7 	bl	89c <QSPI_IO16.isra.0>
    10ae:	e7ea      	b.n	1086 <spi_transfer_bytes+0x10e>
    10b0:	002a      	movs	r2, r5
    10b2:	0020      	movs	r0, r4
    10b4:	f7ff fc5a 	bl	96c <SPI_IO16.isra.0>
    10b8:	e7e5      	b.n	1086 <spi_transfer_bytes+0x10e>
    10ba:	2a01      	cmp	r2, #1
    10bc:	d104      	bne.n	10c8 <spi_transfer_bytes+0x150>
    10be:	002a      	movs	r2, r5
    10c0:	0020      	movs	r0, r4
    10c2:	f7ff fbc7 	bl	854 <QSPI_IO32.isra.0>
    10c6:	e7de      	b.n	1086 <spi_transfer_bytes+0x10e>
    10c8:	002a      	movs	r2, r5
    10ca:	0020      	movs	r0, r4
    10cc:	f7ff fc2a 	bl	924 <SPI_IO32.isra.0>
    10d0:	e7d9      	b.n	1086 <spi_transfer_bytes+0x10e>
    10d2:	2d00      	cmp	r5, #0
    10d4:	d0d7      	beq.n	1086 <spi_transfer_bytes+0x10e>
    10d6:	2808      	cmp	r0, #8
    10d8:	d800      	bhi.n	10dc <spi_transfer_bytes+0x164>
    10da:	e793      	b.n	1004 <spi_transfer_bytes+0x8c>
    10dc:	2810      	cmp	r0, #16
    10de:	d8bb      	bhi.n	1058 <spi_transfer_bytes+0xe0>
    10e0:	e7a6      	b.n	1030 <spi_transfer_bytes+0xb8>
    10e2:	2100      	movs	r1, #0
    10e4:	e7d7      	b.n	1096 <spi_transfer_bytes+0x11e>
    10e6:	2100      	movs	r1, #0
    10e8:	e7e3      	b.n	10b2 <spi_transfer_bytes+0x13a>
    10ea:	2100      	movs	r1, #0
    10ec:	e7ed      	b.n	10ca <spi_transfer_bytes+0x152>
    10ee:	2001      	movs	r0, #1
    10f0:	4240      	negs	r0, r0
    10f2:	e7ce      	b.n	1092 <spi_transfer_bytes+0x11a>
    10f4:	00005a78 			@ <UNDEFINED> instruction: 00005a78
    10f8:	00005aa0 			@ <UNDEFINED> instruction: 00005aa0
    10fc:	100001c0 			@ <UNDEFINED> instruction: 100001c0
    1100:	40004800 			@ <UNDEFINED> instruction: 40004800

00001104 <systick_config>:
    1104:	b510      	push	{r4, lr}
    1106:	4c0d      	ldr	r4, [pc, #52]	@ (113c <systick_config+0x38>)
    1108:	68a3      	ldr	r3, [r4, #8]
    110a:	63d9      	str	r1, [r3, #60]	@ 0x3c
    110c:	4b0c      	ldr	r3, [pc, #48]	@ (1140 <systick_config+0x3c>)
    110e:	681b      	ldr	r3, [r3, #0]
    1110:	fbb3 f0f0 	udiv	r0, r3, r0
    1114:	2380      	movs	r3, #128	@ 0x80
    1116:	3801      	subs	r0, #1
    1118:	045b      	lsls	r3, r3, #17
    111a:	4298      	cmp	r0, r3
    111c:	d20c      	bcs.n	1138 <systick_config+0x34>
    111e:	21c0      	movs	r1, #192	@ 0xc0
    1120:	4a08      	ldr	r2, [pc, #32]	@ (1144 <systick_config+0x40>)
    1122:	0609      	lsls	r1, r1, #24
    1124:	6050      	str	r0, [r2, #4]
    1126:	6a23      	ldr	r3, [r4, #32]
    1128:	021b      	lsls	r3, r3, #8
    112a:	0a1b      	lsrs	r3, r3, #8
    112c:	430b      	orrs	r3, r1
    112e:	6223      	str	r3, [r4, #32]
    1130:	2300      	movs	r3, #0
    1132:	6093      	str	r3, [r2, #8]
    1134:	3307      	adds	r3, #7
    1136:	6013      	str	r3, [r2, #0]
    1138:	bd10      	pop	{r4, pc}
    113a:	46c0      	nop			@ (mov r8, r8)
    113c:	e000ed00 			@ <UNDEFINED> instruction: e000ed00
    1140:	20000c84 			@ <UNDEFINED> instruction: 20000c84
    1144:	e000e010 			@ <UNDEFINED> instruction: e000e010

00001148 <get_cpu_uid>:
    1148:	b57f      	push	{r0, r1, r2, r3, r4, r5, r6, lr}
    114a:	0005      	movs	r5, r0
    114c:	0014      	movs	r4, r2
    114e:	b1c0      	cbz	r0, 1182 <get_cpu_uid+0x3a>
    1150:	290b      	cmp	r1, #11
    1152:	d916      	bls.n	1182 <get_cpu_uid+0x3a>
    1154:	b1aa      	cbz	r2, 1182 <get_cpu_uid+0x3a>
    1156:	2000      	movs	r0, #0
    1158:	f7ff fb16 	bl	788 <FMC_ReadUID>
    115c:	9001      	str	r0, [sp, #4]
    115e:	2001      	movs	r0, #1
    1160:	f7ff fb12 	bl	788 <FMC_ReadUID>
    1164:	9002      	str	r0, [sp, #8]
    1166:	2002      	movs	r0, #2
    1168:	f7ff fb0e 	bl	788 <FMC_ReadUID>
    116c:	260c      	movs	r6, #12
    116e:	9003      	str	r0, [sp, #12]
    1170:	0032      	movs	r2, r6
    1172:	0028      	movs	r0, r5
    1174:	a901      	add	r1, sp, #4
    1176:	f003 fe5f 	bl	4e38 <memcpy>
    117a:	2000      	movs	r0, #0
    117c:	6026      	str	r6, [r4, #0]
    117e:	b004      	add	sp, #16
    1180:	bd70      	pop	{r4, r5, r6, pc}
    1182:	2001      	movs	r0, #1
    1184:	4240      	negs	r0, r0
    1186:	e7fa      	b.n	117e <get_cpu_uid+0x36>

00001188 <flash_erase>:
    1188:	b5f7      	push	{r0, r1, r2, r4, r5, r6, r7, lr}
    118a:	0005      	movs	r5, r0
    118c:	0008      	movs	r0, r1
    118e:	2900      	cmp	r1, #0
    1190:	d061      	beq.n	1256 <flash_erase+0xce>
    1192:	056b      	lsls	r3, r5, #21
    1194:	0d5e      	lsrs	r6, r3, #21
    1196:	b933      	cbnz	r3, 11a6 <flash_erase+0x1e>
    1198:	2380      	movs	r3, #128	@ 0x80
    119a:	035b      	lsls	r3, r3, #13
    119c:	429d      	cmp	r5, r3
    119e:	d205      	bcs.n	11ac <flash_erase+0x24>
    11a0:	194a      	adds	r2, r1, r5
    11a2:	429a      	cmp	r2, r3
    11a4:	d32f      	bcc.n	1206 <flash_erase+0x7e>
    11a6:	2001      	movs	r0, #1
    11a8:	4240      	negs	r0, r0
    11aa:	e054      	b.n	1256 <flash_erase+0xce>
    11ac:	f643 72ff 	movw	r2, #16383	@ 0x3fff
    11b0:	4b2c      	ldr	r3, [pc, #176]	@ (1264 <flash_erase+0xdc>)
    11b2:	18eb      	adds	r3, r5, r3
    11b4:	4293      	cmp	r3, r2
    11b6:	d81d      	bhi.n	11f4 <flash_erase+0x6c>
    11b8:	2282      	movs	r2, #130	@ 0x82
    11ba:	194b      	adds	r3, r1, r5
    11bc:	0352      	lsls	r2, r2, #13
    11be:	4293      	cmp	r3, r2
    11c0:	d2f1      	bcs.n	11a6 <flash_erase+0x1e>
    11c2:	f240 73ff 	movw	r3, #2047	@ 0x7ff
    11c6:	18c9      	adds	r1, r1, r3
    11c8:	0acb      	lsrs	r3, r1, #11
    11ca:	9301      	str	r3, [sp, #4]
    11cc:	b1ee      	cbz	r6, 120a <flash_erase+0x82>
    11ce:	f7ff fa45 	bl	65c <__PC>
    11d2:	2280      	movs	r2, #128	@ 0x80
    11d4:	0003      	movs	r3, r0
    11d6:	0552      	lsls	r2, r2, #21
    11d8:	4013      	ands	r3, r2
    11da:	425a      	negs	r2, r3
    11dc:	4153      	adcs	r3, r2
    11de:	425b      	negs	r3, r3
    11e0:	4a21      	ldr	r2, [pc, #132]	@ (1268 <flash_erase+0xe0>)
    11e2:	0f1b      	lsrs	r3, r3, #28
    11e4:	071b      	lsls	r3, r3, #28
    11e6:	189b      	adds	r3, r3, r2
    11e8:	2208      	movs	r2, #8
    11ea:	6819      	ldr	r1, [r3, #0]
    11ec:	430a      	orrs	r2, r1
    11ee:	601a      	str	r2, [r3, #0]
    11f0:	2700      	movs	r7, #0
    11f2:	e015      	b.n	1220 <flash_erase+0x98>
    11f4:	f641 72ff 	movw	r2, #8191	@ 0x1fff
    11f8:	4b1c      	ldr	r3, [pc, #112]	@ (126c <flash_erase+0xe4>)
    11fa:	18eb      	adds	r3, r5, r3
    11fc:	4293      	cmp	r3, r2
    11fe:	d8d2      	bhi.n	11a6 <flash_erase+0x1e>
    1200:	2289      	movs	r2, #137	@ 0x89
    1202:	194b      	adds	r3, r1, r5
    1204:	e7da      	b.n	11bc <flash_erase+0x34>
    1206:	2601      	movs	r6, #1
    1208:	e7db      	b.n	11c2 <flash_erase+0x3a>
    120a:	2320      	movs	r3, #32
    120c:	4a18      	ldr	r2, [pc, #96]	@ (1270 <flash_erase+0xe8>)
    120e:	6811      	ldr	r1, [r2, #0]
    1210:	430b      	orrs	r3, r1
    1212:	6013      	str	r3, [r2, #0]
    1214:	e7ec      	b.n	11f0 <flash_erase+0x68>
    1216:	f002 fa3f 	bl	3698 <FMC_Erase>
    121a:	0004      	movs	r4, r0
    121c:	b930      	cbnz	r0, 122c <flash_erase+0xa4>
    121e:	3701      	adds	r7, #1
    1220:	9b01      	ldr	r3, [sp, #4]
    1222:	02f8      	lsls	r0, r7, #11
    1224:	1940      	adds	r0, r0, r5
    1226:	429f      	cmp	r7, r3
    1228:	dbf5      	blt.n	1216 <flash_erase+0x8e>
    122a:	2400      	movs	r4, #0
    122c:	b1a6      	cbz	r6, 1258 <flash_erase+0xd0>
    122e:	f7ff fa15 	bl	65c <__PC>
    1232:	2280      	movs	r2, #128	@ 0x80
    1234:	0003      	movs	r3, r0
    1236:	0552      	lsls	r2, r2, #21
    1238:	4013      	ands	r3, r2
    123a:	425a      	negs	r2, r3
    123c:	4153      	adcs	r3, r2
    123e:	2108      	movs	r1, #8
    1240:	425b      	negs	r3, r3
    1242:	4a09      	ldr	r2, [pc, #36]	@ (1268 <flash_erase+0xe0>)
    1244:	0f1b      	lsrs	r3, r3, #28
    1246:	071b      	lsls	r3, r3, #28
    1248:	189b      	adds	r3, r3, r2
    124a:	681a      	ldr	r2, [r3, #0]
    124c:	438a      	bics	r2, r1
    124e:	601a      	str	r2, [r3, #0]
    1250:	1e63      	subs	r3, r4, #1
    1252:	419c      	sbcs	r4, r3
    1254:	4260      	negs	r0, r4
    1256:	bdfe      	pop	{r1, r2, r3, r4, r5, r6, r7, pc}
    1258:	2120      	movs	r1, #32
    125a:	4a05      	ldr	r2, [pc, #20]	@ (1270 <flash_erase+0xe8>)
    125c:	6813      	ldr	r3, [r2, #0]
    125e:	438b      	bics	r3, r1
    1260:	6013      	str	r3, [r2, #0]
    1262:	e7f5      	b.n	1250 <flash_erase+0xc8>
    1264:	fff00000 			@ <UNDEFINED> instruction: fff00000
    1268:	5000c000 			@ <UNDEFINED> instruction: 5000c000
    126c:	ffef0000 			@ <UNDEFINED> instruction: ffef0000
    1270:	4000c000 			@ <UNDEFINED> instruction: 4000c000

00001274 <flash_read>:
    1274:	b5f0      	push	{r4, r5, r6, r7, lr}
    1276:	0005      	movs	r5, r0
    1278:	000e      	movs	r6, r1
    127a:	0014      	movs	r4, r2
    127c:	b085      	sub	sp, #20
    127e:	2a00      	cmp	r2, #0
    1280:	d047      	beq.n	1312 <flash_read+0x9e>
    1282:	2380      	movs	r3, #128	@ 0x80
    1284:	035b      	lsls	r3, r3, #13
    1286:	4298      	cmp	r0, r3
    1288:	d205      	bcs.n	1296 <flash_read+0x22>
    128a:	1812      	adds	r2, r2, r0
    128c:	429a      	cmp	r2, r3
    128e:	d30d      	bcc.n	12ac <flash_read+0x38>
    1290:	2001      	movs	r0, #1
    1292:	4240      	negs	r0, r0
    1294:	e03e      	b.n	1314 <flash_read+0xa0>
    1296:	f643 72ff 	movw	r2, #16383	@ 0x3fff
    129a:	4b29      	ldr	r3, [pc, #164]	@ (1340 <flash_read+0xcc>)
    129c:	18c3      	adds	r3, r0, r3
    129e:	4293      	cmp	r3, r2
    12a0:	d83a      	bhi.n	1318 <flash_read+0xa4>
    12a2:	2282      	movs	r2, #130	@ 0x82
    12a4:	1823      	adds	r3, r4, r0
    12a6:	0352      	lsls	r2, r2, #13
    12a8:	4293      	cmp	r3, r2
    12aa:	d2f1      	bcs.n	1290 <flash_read+0x1c>
    12ac:	2303      	movs	r3, #3
    12ae:	002a      	movs	r2, r5
    12b0:	401a      	ands	r2, r3
    12b2:	9201      	str	r2, [sp, #4]
    12b4:	421d      	tst	r5, r3
    12b6:	d012      	beq.n	12de <flash_read+0x6a>
    12b8:	2704      	movs	r7, #4
    12ba:	1abf      	subs	r7, r7, r2
    12bc:	42a7      	cmp	r7, r4
    12be:	d900      	bls.n	12c2 <flash_read+0x4e>
    12c0:	0027      	movs	r7, r4
    12c2:	0028      	movs	r0, r5
    12c4:	f002 fa8a 	bl	37dc <FMC_Read>
    12c8:	9b01      	ldr	r3, [sp, #4]
    12ca:	a903      	add	r1, sp, #12
    12cc:	9003      	str	r0, [sp, #12]
    12ce:	003a      	movs	r2, r7
    12d0:	0030      	movs	r0, r6
    12d2:	18c9      	adds	r1, r1, r3
    12d4:	f003 fdb0 	bl	4e38 <memcpy>
    12d8:	19ed      	adds	r5, r5, r7
    12da:	19f6      	adds	r6, r6, r7
    12dc:	1be4      	subs	r4, r4, r7
    12de:	0027      	movs	r7, r4
    12e0:	19a3      	adds	r3, r4, r6
    12e2:	1bdb      	subs	r3, r3, r7
    12e4:	1960      	adds	r0, r4, r5
    12e6:	9301      	str	r3, [sp, #4]
    12e8:	1bc0      	subs	r0, r0, r7
    12ea:	2f03      	cmp	r7, #3
    12ec:	d81d      	bhi.n	132a <flash_read+0xb6>
    12ee:	08a3      	lsrs	r3, r4, #2
    12f0:	009b      	lsls	r3, r3, #2
    12f2:	1ae2      	subs	r2, r4, r3
    12f4:	425f      	negs	r7, r3
    12f6:	9201      	str	r2, [sp, #4]
    12f8:	429c      	cmp	r4, r3
    12fa:	d00a      	beq.n	1312 <flash_read+0x9e>
    12fc:	2303      	movs	r3, #3
    12fe:	439c      	bics	r4, r3
    1300:	1960      	adds	r0, r4, r5
    1302:	f002 fa6b 	bl	37dc <FMC_Read>
    1306:	9a01      	ldr	r2, [sp, #4]
    1308:	9003      	str	r0, [sp, #12]
    130a:	a903      	add	r1, sp, #12
    130c:	1bf0      	subs	r0, r6, r7
    130e:	f003 fd93 	bl	4e38 <memcpy>
    1312:	2000      	movs	r0, #0
    1314:	b005      	add	sp, #20
    1316:	bdf0      	pop	{r4, r5, r6, r7, pc}
    1318:	f641 72ff 	movw	r2, #8191	@ 0x1fff
    131c:	4b09      	ldr	r3, [pc, #36]	@ (1344 <flash_read+0xd0>)
    131e:	18c3      	adds	r3, r0, r3
    1320:	4293      	cmp	r3, r2
    1322:	d8b5      	bhi.n	1290 <flash_read+0x1c>
    1324:	2289      	movs	r2, #137	@ 0x89
    1326:	1823      	adds	r3, r4, r0
    1328:	e7bd      	b.n	12a6 <flash_read+0x32>
    132a:	f002 fa57 	bl	37dc <FMC_Read>
    132e:	2204      	movs	r2, #4
    1330:	9003      	str	r0, [sp, #12]
    1332:	a903      	add	r1, sp, #12
    1334:	9801      	ldr	r0, [sp, #4]
    1336:	f003 fd7f 	bl	4e38 <memcpy>
    133a:	3f04      	subs	r7, #4
    133c:	e7d0      	b.n	12e0 <flash_read+0x6c>
    133e:	46c0      	nop			@ (mov r8, r8)
    1340:	fff00000 			@ <UNDEFINED> instruction: fff00000
    1344:	ffef0000 			@ <UNDEFINED> instruction: ffef0000

00001348 <flash_write>:
    1348:	b5f0      	push	{r4, r5, r6, r7, lr}
    134a:	0005      	movs	r5, r0
    134c:	000f      	movs	r7, r1
    134e:	0014      	movs	r4, r2
    1350:	b085      	sub	sp, #20
    1352:	2a00      	cmp	r2, #0
    1354:	d062      	beq.n	141c <flash_write+0xd4>
    1356:	2380      	movs	r3, #128	@ 0x80
    1358:	035b      	lsls	r3, r3, #13
    135a:	4298      	cmp	r0, r3
    135c:	d261      	bcs.n	1422 <flash_write+0xda>
    135e:	1812      	adds	r2, r2, r0
    1360:	429a      	cmp	r2, r3
    1362:	d269      	bcs.n	1438 <flash_write+0xf0>
    1364:	f7ff f97a 	bl	65c <__PC>
    1368:	2280      	movs	r2, #128	@ 0x80
    136a:	0003      	movs	r3, r0
    136c:	0552      	lsls	r2, r2, #21
    136e:	4013      	ands	r3, r2
    1370:	425a      	negs	r2, r3
    1372:	4153      	adcs	r3, r2
    1374:	425b      	negs	r3, r3
    1376:	4a42      	ldr	r2, [pc, #264]	@ (1480 <flash_write+0x138>)
    1378:	0f1b      	lsrs	r3, r3, #28
    137a:	071b      	lsls	r3, r3, #28
    137c:	189b      	adds	r3, r3, r2
    137e:	2208      	movs	r2, #8
    1380:	6819      	ldr	r1, [r3, #0]
    1382:	430a      	orrs	r2, r1
    1384:	601a      	str	r2, [r3, #0]
    1386:	2301      	movs	r3, #1
    1388:	002a      	movs	r2, r5
    138a:	9301      	str	r3, [sp, #4]
    138c:	2303      	movs	r3, #3
    138e:	401a      	ands	r2, r3
    1390:	9200      	str	r2, [sp, #0]
    1392:	421d      	tst	r5, r3
    1394:	d016      	beq.n	13c4 <flash_write+0x7c>
    1396:	2604      	movs	r6, #4
    1398:	1ab6      	subs	r6, r6, r2
    139a:	42a6      	cmp	r6, r4
    139c:	d900      	bls.n	13a0 <flash_write+0x58>
    139e:	0026      	movs	r6, r4
    13a0:	0028      	movs	r0, r5
    13a2:	f002 fa1b 	bl	37dc <FMC_Read>
    13a6:	9b00      	ldr	r3, [sp, #0]
    13a8:	9003      	str	r0, [sp, #12]
    13aa:	a803      	add	r0, sp, #12
    13ac:	0039      	movs	r1, r7
    13ae:	0032      	movs	r2, r6
    13b0:	18c0      	adds	r0, r0, r3
    13b2:	f003 fd41 	bl	4e38 <memcpy>
    13b6:	0028      	movs	r0, r5
    13b8:	9903      	ldr	r1, [sp, #12]
    13ba:	f002 fa7f 	bl	38bc <FMC_Write>
    13be:	19bf      	adds	r7, r7, r6
    13c0:	19ad      	adds	r5, r5, r6
    13c2:	1ba4      	subs	r4, r4, r6
    13c4:	0026      	movs	r6, r4
    13c6:	1963      	adds	r3, r4, r5
    13c8:	1b9b      	subs	r3, r3, r6
    13ca:	19e1      	adds	r1, r4, r7
    13cc:	9300      	str	r3, [sp, #0]
    13ce:	1b89      	subs	r1, r1, r6
    13d0:	2e03      	cmp	r6, #3
    13d2:	d844      	bhi.n	145e <flash_write+0x116>
    13d4:	2303      	movs	r3, #3
    13d6:	0022      	movs	r2, r4
    13d8:	401a      	ands	r2, r3
    13da:	421c      	tst	r4, r3
    13dc:	d00a      	beq.n	13f4 <flash_write+0xac>
    13de:	439c      	bics	r4, r3
    13e0:	19e1      	adds	r1, r4, r7
    13e2:	3b04      	subs	r3, #4
    13e4:	a803      	add	r0, sp, #12
    13e6:	9303      	str	r3, [sp, #12]
    13e8:	f003 fd26 	bl	4e38 <memcpy>
    13ec:	9903      	ldr	r1, [sp, #12]
    13ee:	1928      	adds	r0, r5, r4
    13f0:	f002 fa64 	bl	38bc <FMC_Write>
    13f4:	9b01      	ldr	r3, [sp, #4]
    13f6:	2b00      	cmp	r3, #0
    13f8:	d03b      	beq.n	1472 <flash_write+0x12a>
    13fa:	f7ff f92f 	bl	65c <__PC>
    13fe:	2280      	movs	r2, #128	@ 0x80
    1400:	0003      	movs	r3, r0
    1402:	0552      	lsls	r2, r2, #21
    1404:	4013      	ands	r3, r2
    1406:	425a      	negs	r2, r3
    1408:	4153      	adcs	r3, r2
    140a:	2108      	movs	r1, #8
    140c:	425b      	negs	r3, r3
    140e:	4a1c      	ldr	r2, [pc, #112]	@ (1480 <flash_write+0x138>)
    1410:	0f1b      	lsrs	r3, r3, #28
    1412:	071b      	lsls	r3, r3, #28
    1414:	189b      	adds	r3, r3, r2
    1416:	681a      	ldr	r2, [r3, #0]
    1418:	438a      	bics	r2, r1
    141a:	601a      	str	r2, [r3, #0]
    141c:	2000      	movs	r0, #0
    141e:	b005      	add	sp, #20
    1420:	bdf0      	pop	{r4, r5, r6, r7, pc}
    1422:	f643 72ff 	movw	r2, #16383	@ 0x3fff
    1426:	4b17      	ldr	r3, [pc, #92]	@ (1484 <flash_write+0x13c>)
    1428:	18c3      	adds	r3, r0, r3
    142a:	4293      	cmp	r3, r2
    142c:	d807      	bhi.n	143e <flash_write+0xf6>
    142e:	2282      	movs	r2, #130	@ 0x82
    1430:	1823      	adds	r3, r4, r0
    1432:	0352      	lsls	r2, r2, #13
    1434:	4293      	cmp	r3, r2
    1436:	d30b      	bcc.n	1450 <flash_write+0x108>
    1438:	2001      	movs	r0, #1
    143a:	4240      	negs	r0, r0
    143c:	e7ef      	b.n	141e <flash_write+0xd6>
    143e:	f641 72ff 	movw	r2, #8191	@ 0x1fff
    1442:	4b11      	ldr	r3, [pc, #68]	@ (1488 <flash_write+0x140>)
    1444:	18c3      	adds	r3, r0, r3
    1446:	4293      	cmp	r3, r2
    1448:	d8f6      	bhi.n	1438 <flash_write+0xf0>
    144a:	2289      	movs	r2, #137	@ 0x89
    144c:	1823      	adds	r3, r4, r0
    144e:	e7f0      	b.n	1432 <flash_write+0xea>
    1450:	2320      	movs	r3, #32
    1452:	4a0e      	ldr	r2, [pc, #56]	@ (148c <flash_write+0x144>)
    1454:	6811      	ldr	r1, [r2, #0]
    1456:	430b      	orrs	r3, r1
    1458:	6013      	str	r3, [r2, #0]
    145a:	2300      	movs	r3, #0
    145c:	e794      	b.n	1388 <flash_write+0x40>
    145e:	2204      	movs	r2, #4
    1460:	a803      	add	r0, sp, #12
    1462:	f003 fce9 	bl	4e38 <memcpy>
    1466:	9903      	ldr	r1, [sp, #12]
    1468:	9800      	ldr	r0, [sp, #0]
    146a:	f002 fa27 	bl	38bc <FMC_Write>
    146e:	3e04      	subs	r6, #4
    1470:	e7a9      	b.n	13c6 <flash_write+0x7e>
    1472:	2120      	movs	r1, #32
    1474:	4a05      	ldr	r2, [pc, #20]	@ (148c <flash_write+0x144>)
    1476:	6813      	ldr	r3, [r2, #0]
    1478:	438b      	bics	r3, r1
    147a:	6013      	str	r3, [r2, #0]
    147c:	e7ce      	b.n	141c <flash_write+0xd4>
    147e:	46c0      	nop			@ (mov r8, r8)
    1480:	5000c000 			@ <UNDEFINED> instruction: 5000c000
    1484:	fff00000 			@ <UNDEFINED> instruction: fff00000
    1488:	ffef0000 			@ <UNDEFINED> instruction: ffef0000
    148c:	4000c000 			@ <UNDEFINED> instruction: 4000c000

00001490 <ProcessHardFault>:
    1490:	b510      	push	{r4, lr}
    1492:	0014      	movs	r4, r2
    1494:	0643      	lsls	r3, r0, #25
    1496:	d502      	bpl.n	149e <ProcessHardFault+0xe>
    1498:	0740      	lsls	r0, r0, #29
    149a:	d400      	bmi.n	149e <ProcessHardFault+0xe>
    149c:	000c      	movs	r4, r1
    149e:	4819      	ldr	r0, [pc, #100]	@ (1504 <ProcessHardFault+0x74>)
    14a0:	f001 fb2c 	bl	2afc <printf_>
    14a4:	6821      	ldr	r1, [r4, #0]
    14a6:	4818      	ldr	r0, [pc, #96]	@ (1508 <ProcessHardFault+0x78>)
    14a8:	f001 fb28 	bl	2afc <printf_>
    14ac:	6861      	ldr	r1, [r4, #4]
    14ae:	4817      	ldr	r0, [pc, #92]	@ (150c <ProcessHardFault+0x7c>)
    14b0:	f001 fb24 	bl	2afc <printf_>
    14b4:	68a1      	ldr	r1, [r4, #8]
    14b6:	4816      	ldr	r0, [pc, #88]	@ (1510 <ProcessHardFault+0x80>)
    14b8:	f001 fb20 	bl	2afc <printf_>
    14bc:	68e1      	ldr	r1, [r4, #12]
    14be:	4815      	ldr	r0, [pc, #84]	@ (1514 <ProcessHardFault+0x84>)
    14c0:	f001 fb1c 	bl	2afc <printf_>
    14c4:	6921      	ldr	r1, [r4, #16]
    14c6:	4814      	ldr	r0, [pc, #80]	@ (1518 <ProcessHardFault+0x88>)
    14c8:	f001 fb18 	bl	2afc <printf_>
    14cc:	6961      	ldr	r1, [r4, #20]
    14ce:	4813      	ldr	r0, [pc, #76]	@ (151c <ProcessHardFault+0x8c>)
    14d0:	f001 fb14 	bl	2afc <printf_>
    14d4:	69a1      	ldr	r1, [r4, #24]
    14d6:	4812      	ldr	r0, [pc, #72]	@ (1520 <ProcessHardFault+0x90>)
    14d8:	f001 fb10 	bl	2afc <printf_>
    14dc:	69e1      	ldr	r1, [r4, #28]
    14de:	4811      	ldr	r0, [pc, #68]	@ (1524 <ProcessHardFault+0x94>)
    14e0:	f001 fb0c 	bl	2afc <printf_>
    14e4:	4b10      	ldr	r3, [pc, #64]	@ (1528 <ProcessHardFault+0x98>)
    14e6:	681b      	ldr	r3, [r3, #0]
    14e8:	2b01      	cmp	r3, #1
    14ea:	d102      	bne.n	14f2 <ProcessHardFault+0x62>
    14ec:	f002 fe5c 	bl	41a8 <SYS_ResetChip>
    14f0:	e7fe      	b.n	14f0 <ProcessHardFault+0x60>
    14f2:	2b02      	cmp	r3, #2
    14f4:	d104      	bne.n	1500 <ProcessHardFault+0x70>
    14f6:	4b0d      	ldr	r3, [pc, #52]	@ (152c <ProcessHardFault+0x9c>)
    14f8:	681b      	ldr	r3, [r3, #0]
    14fa:	b10b      	cbz	r3, 1500 <ProcessHardFault+0x70>
    14fc:	0020      	movs	r0, r4
    14fe:	4798      	blx	r3
    1500:	e7fe      	b.n	1500 <ProcessHardFault+0x70>
    1502:	46c0      	nop			@ (mov r8, r8)
    1504:	00004fcc 			@ <UNDEFINED> instruction: 00004fcc
    1508:	00004fdb 	ldrdeq	r4, [r0], -fp
    150c:	00004fe8 			@ <UNDEFINED> instruction: 00004fe8
    1510:	00004ff5 	strdeq	r4, [r0], -r5
    1514:	00005002 			@ <UNDEFINED> instruction: 00005002
    1518:	0000500f 			@ <UNDEFINED> instruction: 0000500f
    151c:	0000501c 			@ <UNDEFINED> instruction: 0000501c
    1520:	00005029 			@ <UNDEFINED> instruction: 00005029
    1524:	00005036 			@ <UNDEFINED> instruction: 00005036
    1528:	20000e94 			@ <UNDEFINED> instruction: 20000e94
    152c:	20000e98 			@ <UNDEFINED> instruction: 20000e98

00001530 <SYS_ResetModule_S>:
    1530:	b510      	push	{r4, lr}
    1532:	f002 fe41 	bl	41b8 <SYS_ResetModule>
    1536:	2000      	movs	r0, #0
    1538:	bd10      	pop	{r4, pc}

0000153a <CLK_SetModuleClock_S>:
    153a:	b510      	push	{r4, lr}
    153c:	f001 fdda 	bl	30f4 <CLK_SetModuleClock>
    1540:	2000      	movs	r0, #0
    1542:	bd10      	pop	{r4, pc}

00001544 <CLK_EnableModuleClock_S>:
    1544:	b510      	push	{r4, lr}
    1546:	f001 fe59 	bl	31fc <CLK_EnableModuleClock>
    154a:	2000      	movs	r0, #0
    154c:	bd10      	pop	{r4, pc}

0000154e <CLK_DisableModuleClock_S>:
    154e:	b510      	push	{r4, lr}
    1550:	f001 fe66 	bl	3220 <CLK_DisableModuleClock>
    1554:	2000      	movs	r0, #0
    1556:	bd10      	pop	{r4, pc}

00001558 <pin_function_s>:
    1558:	b513      	push	{r0, r1, r4, lr}
    155a:	2407      	movs	r4, #7
    155c:	4b10      	ldr	r3, [pc, #64]	@ (15a0 <pin_function_s+0x48>)
    155e:	00c0      	lsls	r0, r0, #3
    1560:	9301      	str	r3, [sp, #4]
    1562:	9b01      	ldr	r3, [sp, #4]
    1564:	18c0      	adds	r0, r0, r3
    1566:	17cb      	asrs	r3, r1, #31
    1568:	4023      	ands	r3, r4
    156a:	9001      	str	r0, [sp, #4]
    156c:	185b      	adds	r3, r3, r1
    156e:	9801      	ldr	r0, [sp, #4]
    1570:	10db      	asrs	r3, r3, #3
    1572:	009b      	lsls	r3, r3, #2
    1574:	181b      	adds	r3, r3, r0
    1576:	9301      	str	r3, [sp, #4]
    1578:	9b01      	ldr	r3, [sp, #4]
    157a:	480a      	ldr	r0, [pc, #40]	@ (15a4 <pin_function_s+0x4c>)
    157c:	681b      	ldr	r3, [r3, #0]
    157e:	4001      	ands	r1, r0
    1580:	d504      	bpl.n	158c <pin_function_s+0x34>
    1582:	2008      	movs	r0, #8
    1584:	3901      	subs	r1, #1
    1586:	4240      	negs	r0, r0
    1588:	4301      	orrs	r1, r0
    158a:	3101      	adds	r1, #1
    158c:	200f      	movs	r0, #15
    158e:	0089      	lsls	r1, r1, #2
    1590:	4088      	lsls	r0, r1
    1592:	4383      	bics	r3, r0
    1594:	431a      	orrs	r2, r3
    1596:	9b01      	ldr	r3, [sp, #4]
    1598:	2000      	movs	r0, #0
    159a:	601a      	str	r2, [r3, #0]
    159c:	bd16      	pop	{r1, r2, r4, pc}
    159e:	46c0      	nop			@ (mov r8, r8)
    15a0:	40000030 			@ <UNDEFINED> instruction: 40000030
    15a4:	80000007 			@ <UNDEFINED> instruction: 80000007

000015a8 <reset_chip>:
    15a8:	b510      	push	{r4, lr}
    15aa:	f002 fdfd 	bl	41a8 <SYS_ResetChip>
    15ae:	e7fe      	b.n	15ae <reset_chip+0x6>

000015b0 <secureboot_status>:
    15b0:	b510      	push	{r4, lr}
    15b2:	200d      	movs	r0, #13
    15b4:	f001 fe22 	bl	31fc <CLK_EnableModuleClock>
    15b8:	f002 fa0c 	bl	39d4 <KS_Open>
    15bc:	4b03      	ldr	r3, [pc, #12]	@ (15cc <secureboot_status+0x1c>)
    15be:	6c18      	ldr	r0, [r3, #64]	@ 0x40
    15c0:	2303      	movs	r3, #3
    15c2:	4018      	ands	r0, r3
    15c4:	1e43      	subs	r3, r0, #1
    15c6:	4198      	sbcs	r0, r3
    15c8:	bd10      	pop	{r4, pc}
    15ca:	46c0      	nop			@ (mov r8, r8)
    15cc:	40035000 			@ <UNDEFINED> instruction: 40035000

000015d0 <find_pin_af>:
    15d0:	0003      	movs	r3, r0
    15d2:	0008      	movs	r0, r1
    15d4:	b909      	cbnz	r1, 15da <find_pin_af+0xa>
    15d6:	4770      	bx	lr
    15d8:	320c      	adds	r2, #12
    15da:	6810      	ldr	r0, [r2, #0]
    15dc:	2800      	cmp	r0, #0
    15de:	d0fa      	beq.n	15d6 <find_pin_af+0x6>
    15e0:	4298      	cmp	r0, r3
    15e2:	d1f9      	bne.n	15d8 <find_pin_af+0x8>
    15e4:	6850      	ldr	r0, [r2, #4]
    15e6:	4288      	cmp	r0, r1
    15e8:	d1f6      	bne.n	15d8 <find_pin_af+0x8>
    15ea:	6890      	ldr	r0, [r2, #8]
    15ec:	e7f3      	b.n	15d6 <find_pin_af+0x6>

000015ee <find_mod_desc>:
    15ee:	0002      	movs	r2, r0
    15f0:	0008      	movs	r0, r1
    15f2:	6803      	ldr	r3, [r0, #0]
    15f4:	b90b      	cbnz	r3, 15fa <find_mod_desc+0xc>
    15f6:	0018      	movs	r0, r3
    15f8:	4770      	bx	lr
    15fa:	4293      	cmp	r3, r2
    15fc:	d0fc      	beq.n	15f8 <find_mod_desc+0xa>
    15fe:	3018      	adds	r0, #24
    1600:	e7f7      	b.n	15f2 <find_mod_desc+0x4>
	...

00001604 <systick_isr>:
    1604:	4a02      	ldr	r2, [pc, #8]	@ (1610 <systick_isr+0xc>)
    1606:	6813      	ldr	r3, [r2, #0]
    1608:	3301      	adds	r3, #1
    160a:	6013      	str	r3, [r2, #0]
    160c:	4770      	bx	lr
    160e:	46c0      	nop			@ (mov r8, r8)
    1610:	20000e9c 			@ <UNDEFINED> instruction: 20000e9c

00001614 <get_systick>:
    1614:	4b01      	ldr	r3, [pc, #4]	@ (161c <get_systick+0x8>)
    1616:	6818      	ldr	r0, [r3, #0]
    1618:	4770      	bx	lr
    161a:	46c0      	nop			@ (mov r8, r8)
    161c:	20000e9c 			@ <UNDEFINED> instruction: 20000e9c

00001620 <systick_diff>:
    1620:	0003      	movs	r3, r0
    1622:	1a08      	subs	r0, r1, r0
    1624:	4299      	cmp	r1, r3
    1626:	4189      	sbcs	r1, r1
    1628:	4249      	negs	r1, r1
    162a:	1a40      	subs	r0, r0, r1
    162c:	4770      	bx	lr
	...

00001630 <systick_delay>:
    1630:	b573      	push	{r0, r1, r4, r5, r6, lr}
    1632:	0004      	movs	r4, r0
    1634:	4d05      	ldr	r5, [pc, #20]	@ (164c <systick_delay+0x1c>)
    1636:	682e      	ldr	r6, [r5, #0]
    1638:	46c0      	nop			@ (mov r8, r8)
    163a:	682b      	ldr	r3, [r5, #0]
    163c:	0030      	movs	r0, r6
    163e:	9301      	str	r3, [sp, #4]
    1640:	9901      	ldr	r1, [sp, #4]
    1642:	f7ff ffed 	bl	1620 <systick_diff>
    1646:	42a0      	cmp	r0, r4
    1648:	d9f6      	bls.n	1638 <systick_delay+0x8>
    164a:	bd73      	pop	{r0, r1, r4, r5, r6, pc}
    164c:	20000e9c 			@ <UNDEFINED> instruction: 20000e9c

00001650 <systick_init>:
    1650:	b510      	push	{r4, lr}
    1652:	4902      	ldr	r1, [pc, #8]	@ (165c <systick_init+0xc>)
    1654:	f7ff fd56 	bl	1104 <systick_config>
    1658:	bd10      	pop	{r4, pc}
    165a:	46c0      	nop			@ (mov r8, r8)
    165c:	00001605 			@ <UNDEFINED> instruction: 00001605

00001660 <isrpipe_init>:
    1660:	b570      	push	{r4, r5, r6, lr}
    1662:	0004      	movs	r4, r0
    1664:	000e      	movs	r6, r1
    1666:	0015      	movs	r5, r2
    1668:	2100      	movs	r1, #0
    166a:	2220      	movs	r2, #32
    166c:	3010      	adds	r0, #16
    166e:	f7fe fe8d 	bl	38c <memset>
    1672:	2000      	movs	r0, #0
    1674:	6026      	str	r6, [r4, #0]
    1676:	6065      	str	r5, [r4, #4]
    1678:	60a0      	str	r0, [r4, #8]
    167a:	60e0      	str	r0, [r4, #12]
    167c:	bd70      	pop	{r4, r5, r6, pc}

0000167e <isrpipe_free>:
    167e:	4770      	bx	lr

00001680 <isrpipe_write_one>:
    1680:	b510      	push	{r4, lr}
    1682:	f001 faa0 	bl	2bc6 <tsrb_add_one>
    1686:	2000      	movs	r0, #0
    1688:	bd10      	pop	{r4, pc}

0000168a <isrpipe_read>:
    168a:	b5f0      	push	{r4, r5, r6, r7, lr}
    168c:	b085      	sub	sp, #20
    168e:	000d      	movs	r5, r1
    1690:	0016      	movs	r6, r2
    1692:	001c      	movs	r4, r3
    1694:	9001      	str	r0, [sp, #4]
    1696:	f7ff ffbd 	bl	1614 <get_systick>
    169a:	0007      	movs	r7, r0
    169c:	0032      	movs	r2, r6
    169e:	0029      	movs	r1, r5
    16a0:	9801      	ldr	r0, [sp, #4]
    16a2:	f001 fa7c 	bl	2b9e <tsrb_get>
    16a6:	b108      	cbz	r0, 16ac <isrpipe_read+0x22>
    16a8:	b005      	add	sp, #20
    16aa:	bdf0      	pop	{r4, r5, r6, r7, pc}
    16ac:	1c63      	adds	r3, r4, #1
    16ae:	d0f5      	beq.n	169c <isrpipe_read+0x12>
    16b0:	46c0      	nop			@ (mov r8, r8)
    16b2:	f7ff ffaf 	bl	1614 <get_systick>
    16b6:	9003      	str	r0, [sp, #12]
    16b8:	9903      	ldr	r1, [sp, #12]
    16ba:	0038      	movs	r0, r7
    16bc:	f7ff ffb0 	bl	1620 <systick_diff>
    16c0:	42a0      	cmp	r0, r4
    16c2:	d9eb      	bls.n	169c <isrpipe_read+0x12>
    16c4:	2001      	movs	r0, #1
    16c6:	4240      	negs	r0, r0
    16c8:	e7ee      	b.n	16a8 <isrpipe_read+0x1e>

000016ca <spi_nor_lock>:
    16ca:	b570      	push	{r4, r5, r6, lr}
    16cc:	6804      	ldr	r4, [r0, #0]
    16ce:	6825      	ldr	r5, [r4, #0]
    16d0:	b105      	cbz	r5, 16d4 <spi_nor_lock+0xa>
    16d2:	e7fe      	b.n	16d2 <spi_nor_lock+0x8>
    16d4:	2301      	movs	r3, #1
    16d6:	6023      	str	r3, [r4, #0]
    16d8:	0020      	movs	r0, r4
    16da:	6aa3      	ldr	r3, [r4, #40]	@ 0x28
    16dc:	4798      	blx	r3
    16de:	6025      	str	r5, [r4, #0]
    16e0:	bd70      	pop	{r4, r5, r6, pc}

000016e2 <spi_nor_unlock>:
    16e2:	b570      	push	{r4, r5, r6, lr}
    16e4:	6804      	ldr	r4, [r0, #0]
    16e6:	6825      	ldr	r5, [r4, #0]
    16e8:	b105      	cbz	r5, 16ec <spi_nor_unlock+0xa>
    16ea:	e7fe      	b.n	16ea <spi_nor_unlock+0x8>
    16ec:	2301      	movs	r3, #1
    16ee:	6023      	str	r3, [r4, #0]
    16f0:	0020      	movs	r0, r4
    16f2:	6ae3      	ldr	r3, [r4, #44]	@ 0x2c
    16f4:	4798      	blx	r3
    16f6:	6025      	str	r5, [r4, #0]
    16f8:	bd70      	pop	{r4, r5, r6, pc}

000016fa <spi_nor_is_locked>:
    16fa:	b570      	push	{r4, r5, r6, lr}
    16fc:	6804      	ldr	r4, [r0, #0]
    16fe:	6825      	ldr	r5, [r4, #0]
    1700:	b105      	cbz	r5, 1704 <spi_nor_is_locked+0xa>
    1702:	e7fe      	b.n	1702 <spi_nor_is_locked+0x8>
    1704:	2301      	movs	r3, #1
    1706:	6023      	str	r3, [r4, #0]
    1708:	0020      	movs	r0, r4
    170a:	6b23      	ldr	r3, [r4, #48]	@ 0x30
    170c:	4798      	blx	r3
    170e:	6025      	str	r5, [r4, #0]
    1710:	bd70      	pop	{r4, r5, r6, pc}

00001712 <spi_nor_read>:
    1712:	b5f7      	push	{r0, r1, r2, r4, r5, r6, r7, lr}
    1714:	6805      	ldr	r5, [r0, #0]
    1716:	9301      	str	r3, [sp, #4]
    1718:	682b      	ldr	r3, [r5, #0]
    171a:	000f      	movs	r7, r1
    171c:	0014      	movs	r4, r2
    171e:	b103      	cbz	r3, 1722 <spi_nor_read+0x10>
    1720:	e7fe      	b.n	1720 <spi_nor_read+0xe>
    1722:	2301      	movs	r3, #1
    1724:	602b      	str	r3, [r5, #0]
    1726:	b91c      	cbnz	r4, 1730 <spi_nor_read+0x1e>
    1728:	0020      	movs	r0, r4
    172a:	2300      	movs	r3, #0
    172c:	602b      	str	r3, [r5, #0]
    172e:	bdfe      	pop	{r1, r2, r3, r4, r5, r6, r7, pc}
    1730:	69eb      	ldr	r3, [r5, #28]
    1732:	0022      	movs	r2, r4
    1734:	001e      	movs	r6, r3
    1736:	0039      	movs	r1, r7
    1738:	0028      	movs	r0, r5
    173a:	9b01      	ldr	r3, [sp, #4]
    173c:	47b0      	blx	r6
    173e:	b160      	cbz	r0, 175a <spi_nor_read+0x48>
    1740:	2800      	cmp	r0, #0
    1742:	dbf2      	blt.n	172a <spi_nor_read+0x18>
    1744:	9b08      	ldr	r3, [sp, #32]
    1746:	9a08      	ldr	r2, [sp, #32]
    1748:	681b      	ldr	r3, [r3, #0]
    174a:	183f      	adds	r7, r7, r0
    174c:	181b      	adds	r3, r3, r0
    174e:	6013      	str	r3, [r2, #0]
    1750:	9b01      	ldr	r3, [sp, #4]
    1752:	1a24      	subs	r4, r4, r0
    1754:	181b      	adds	r3, r3, r0
    1756:	9301      	str	r3, [sp, #4]
    1758:	e7e5      	b.n	1726 <spi_nor_read+0x14>
    175a:	2001      	movs	r0, #1
    175c:	4240      	negs	r0, r0
    175e:	e7e4      	b.n	172a <spi_nor_read+0x18>

00001760 <spi_nor_wait_till_ready_with_timeout>:
    1760:	b5f0      	push	{r4, r5, r6, r7, lr}
    1762:	b089      	sub	sp, #36	@ 0x24
    1764:	0004      	movs	r4, r0
    1766:	9103      	str	r1, [sp, #12]
    1768:	f7ff ff54 	bl	1614 <get_systick>
    176c:	9006      	str	r0, [sp, #24]
    176e:	f7ff ff51 	bl	1614 <get_systick>
    1772:	9007      	str	r0, [sp, #28]
    1774:	9806      	ldr	r0, [sp, #24]
    1776:	9907      	ldr	r1, [sp, #28]
    1778:	f7ff ff52 	bl	1620 <systick_diff>
    177c:	ab04      	add	r3, sp, #16
    177e:	1dde      	adds	r6, r3, #7
    1780:	68a3      	ldr	r3, [r4, #8]
    1782:	9002      	str	r0, [sp, #8]
    1784:	6a5b      	ldr	r3, [r3, #36]	@ 0x24
    1786:	6965      	ldr	r5, [r4, #20]
    1788:	7899      	ldrb	r1, [r3, #2]
    178a:	0032      	movs	r2, r6
    178c:	2301      	movs	r3, #1
    178e:	0020      	movs	r0, r4
    1790:	47a8      	blx	r5
    1792:	0005      	movs	r5, r0
    1794:	b978      	cbnz	r0, 17b6 <spi_nor_wait_till_ready_with_timeout+0x56>
    1796:	2320      	movs	r3, #32
    1798:	68e2      	ldr	r2, [r4, #12]
    179a:	7831      	ldrb	r1, [r6, #0]
    179c:	421a      	tst	r2, r3
    179e:	d00f      	beq.n	17c0 <spi_nor_wait_till_ready_with_timeout+0x60>
    17a0:	3340      	adds	r3, #64	@ 0x40
    17a2:	4219      	tst	r1, r3
    17a4:	d00c      	beq.n	17c0 <spi_nor_wait_till_ready_with_timeout+0x60>
    17a6:	68a3      	ldr	r3, [r4, #8]
    17a8:	0002      	movs	r2, r0
    17aa:	6a5b      	ldr	r3, [r3, #36]	@ 0x24
    17ac:	69a6      	ldr	r6, [r4, #24]
    17ae:	7999      	ldrb	r1, [r3, #6]
    17b0:	0003      	movs	r3, r0
    17b2:	0020      	movs	r0, r4
    17b4:	47b0      	blx	r6
    17b6:	2501      	movs	r5, #1
    17b8:	426d      	negs	r5, r5
    17ba:	0028      	movs	r0, r5
    17bc:	b009      	add	sp, #36	@ 0x24
    17be:	bdf0      	pop	{r4, r5, r6, r7, pc}
    17c0:	2301      	movs	r3, #1
    17c2:	001f      	movs	r7, r3
    17c4:	438f      	bics	r7, r1
    17c6:	9701      	str	r7, [sp, #4]
    17c8:	421a      	tst	r2, r3
    17ca:	d024      	beq.n	1816 <spi_nor_wait_till_ready_with_timeout+0xb6>
    17cc:	68a2      	ldr	r2, [r4, #8]
    17ce:	0020      	movs	r0, r4
    17d0:	6a52      	ldr	r2, [r2, #36]	@ 0x24
    17d2:	78d1      	ldrb	r1, [r2, #3]
    17d4:	6962      	ldr	r2, [r4, #20]
    17d6:	0017      	movs	r7, r2
    17d8:	0032      	movs	r2, r6
    17da:	47b8      	blx	r7
    17dc:	0002      	movs	r2, r0
    17de:	2800      	cmp	r0, #0
    17e0:	d1e9      	bne.n	17b6 <spi_nor_wait_till_ready_with_timeout+0x56>
    17e2:	2130      	movs	r1, #48	@ 0x30
    17e4:	7833      	ldrb	r3, [r6, #0]
    17e6:	420b      	tst	r3, r1
    17e8:	d007      	beq.n	17fa <spi_nor_wait_till_ready_with_timeout+0x9a>
    17ea:	68a3      	ldr	r3, [r4, #8]
    17ec:	69a5      	ldr	r5, [r4, #24]
    17ee:	6a5b      	ldr	r3, [r3, #36]	@ 0x24
    17f0:	79d9      	ldrb	r1, [r3, #7]
    17f2:	0003      	movs	r3, r0
    17f4:	0020      	movs	r0, r4
    17f6:	47a8      	blx	r5
    17f8:	e7dd      	b.n	17b6 <spi_nor_wait_till_ready_with_timeout+0x56>
    17fa:	9a01      	ldr	r2, [sp, #4]
    17fc:	b93a      	cbnz	r2, 180e <spi_nor_wait_till_ready_with_timeout+0xae>
    17fe:	2001      	movs	r0, #1
    1800:	f7ff ff16 	bl	1630 <systick_delay>
    1804:	9b02      	ldr	r3, [sp, #8]
    1806:	9a03      	ldr	r2, [sp, #12]
    1808:	4293      	cmp	r3, r2
    180a:	d9b0      	bls.n	176e <spi_nor_wait_till_ready_with_timeout+0xe>
    180c:	e7d3      	b.n	17b6 <spi_nor_wait_till_ready_with_timeout+0x56>
    180e:	b25b      	sxtb	r3, r3
    1810:	2b00      	cmp	r3, #0
    1812:	daf4      	bge.n	17fe <spi_nor_wait_till_ready_with_timeout+0x9e>
    1814:	e7d1      	b.n	17ba <spi_nor_wait_till_ready_with_timeout+0x5a>
    1816:	9b01      	ldr	r3, [sp, #4]
    1818:	2b00      	cmp	r3, #0
    181a:	d0f0      	beq.n	17fe <spi_nor_wait_till_ready_with_timeout+0x9e>
    181c:	e7cd      	b.n	17ba <spi_nor_wait_till_ready_with_timeout+0x5a>

0000181e <_spi_nor_write>:
    181e:	b5f0      	push	{r4, r5, r6, r7, lr}
    1820:	0005      	movs	r5, r0
    1822:	b087      	sub	sp, #28
    1824:	6840      	ldr	r0, [r0, #4]
    1826:	000c      	movs	r4, r1
    1828:	0016      	movs	r6, r2
    182a:	9301      	str	r3, [sp, #4]
    182c:	f7ff fb3a 	bl	ea4 <spi_acquire>
    1830:	2800      	cmp	r0, #0
    1832:	d12e      	bne.n	1892 <_spi_nor_write+0x74>
    1834:	7cab      	ldrb	r3, [r5, #18]
    1836:	aa02      	add	r2, sp, #8
    1838:	7013      	strb	r3, [r2, #0]
    183a:	68ab      	ldr	r3, [r5, #8]
    183c:	8c19      	ldrh	r1, [r3, #32]
    183e:	2301      	movs	r3, #1
    1840:	2904      	cmp	r1, #4
    1842:	d102      	bne.n	184a <_spi_nor_write+0x2c>
    1844:	0e23      	lsrs	r3, r4, #24
    1846:	7053      	strb	r3, [r2, #1]
    1848:	2302      	movs	r3, #2
    184a:	0c21      	lsrs	r1, r4, #16
    184c:	54d1      	strb	r1, [r2, r3]
    184e:	0a20      	lsrs	r0, r4, #8
    1850:	18d1      	adds	r1, r2, r3
    1852:	af04      	add	r7, sp, #16
    1854:	3303      	adds	r3, #3
    1856:	7048      	strb	r0, [r1, #1]
    1858:	708c      	strb	r4, [r1, #2]
    185a:	9204      	str	r2, [sp, #16]
    185c:	9305      	str	r3, [sp, #20]
    185e:	003a      	movs	r2, r7
    1860:	2300      	movs	r3, #0
    1862:	2101      	movs	r1, #1
    1864:	6868      	ldr	r0, [r5, #4]
    1866:	f7ff fb87 	bl	f78 <spi_transfer_bytes>
    186a:	0004      	movs	r4, r0
    186c:	b948      	cbnz	r0, 1882 <_spi_nor_write+0x64>
    186e:	9b01      	ldr	r3, [sp, #4]
    1870:	0021      	movs	r1, r4
    1872:	9304      	str	r3, [sp, #16]
    1874:	003a      	movs	r2, r7
    1876:	0023      	movs	r3, r4
    1878:	6868      	ldr	r0, [r5, #4]
    187a:	9605      	str	r6, [sp, #20]
    187c:	f7ff fb7c 	bl	f78 <spi_transfer_bytes>
    1880:	0004      	movs	r4, r0
    1882:	6868      	ldr	r0, [r5, #4]
    1884:	f7ff fb50 	bl	f28 <spi_release>
    1888:	b904      	cbnz	r4, 188c <_spi_nor_write+0x6e>
    188a:	0034      	movs	r4, r6
    188c:	0020      	movs	r0, r4
    188e:	b007      	add	sp, #28
    1890:	bdf0      	pop	{r4, r5, r6, r7, pc}
    1892:	2401      	movs	r4, #1
    1894:	4264      	negs	r4, r4
    1896:	e7f9      	b.n	188c <_spi_nor_write+0x6e>

00001898 <_spi_nor_read>:
    1898:	b5f0      	push	{r4, r5, r6, r7, lr}
    189a:	0005      	movs	r5, r0
    189c:	b087      	sub	sp, #28
    189e:	6840      	ldr	r0, [r0, #4]
    18a0:	000c      	movs	r4, r1
    18a2:	0016      	movs	r6, r2
    18a4:	001f      	movs	r7, r3
    18a6:	f7ff fafd 	bl	ea4 <spi_acquire>
    18aa:	2800      	cmp	r0, #0
    18ac:	d12c      	bne.n	1908 <_spi_nor_read+0x70>
    18ae:	466a      	mov	r2, sp
    18b0:	7c6b      	ldrb	r3, [r5, #17]
    18b2:	7013      	strb	r3, [r2, #0]
    18b4:	68ab      	ldr	r3, [r5, #8]
    18b6:	8c19      	ldrh	r1, [r3, #32]
    18b8:	2301      	movs	r3, #1
    18ba:	2904      	cmp	r1, #4
    18bc:	d102      	bne.n	18c4 <_spi_nor_read+0x2c>
    18be:	0e23      	lsrs	r3, r4, #24
    18c0:	7053      	strb	r3, [r2, #1]
    18c2:	2302      	movs	r3, #2
    18c4:	0c21      	lsrs	r1, r4, #16
    18c6:	54d1      	strb	r1, [r2, r3]
    18c8:	0a20      	lsrs	r0, r4, #8
    18ca:	18d1      	adds	r1, r2, r3
    18cc:	3303      	adds	r3, #3
    18ce:	7048      	strb	r0, [r1, #1]
    18d0:	708c      	strb	r4, [r1, #2]
    18d2:	9202      	str	r2, [sp, #8]
    18d4:	9303      	str	r3, [sp, #12]
    18d6:	2101      	movs	r1, #1
    18d8:	2300      	movs	r3, #0
    18da:	6868      	ldr	r0, [r5, #4]
    18dc:	aa02      	add	r2, sp, #8
    18de:	f7ff fb4b 	bl	f78 <spi_transfer_bytes>
    18e2:	0004      	movs	r4, r0
    18e4:	b940      	cbnz	r0, 18f8 <_spi_nor_read+0x60>
    18e6:	0022      	movs	r2, r4
    18e8:	0021      	movs	r1, r4
    18ea:	ab04      	add	r3, sp, #16
    18ec:	6868      	ldr	r0, [r5, #4]
    18ee:	9704      	str	r7, [sp, #16]
    18f0:	605e      	str	r6, [r3, #4]
    18f2:	f7ff fb41 	bl	f78 <spi_transfer_bytes>
    18f6:	0004      	movs	r4, r0
    18f8:	6868      	ldr	r0, [r5, #4]
    18fa:	f7ff fb15 	bl	f28 <spi_release>
    18fe:	b904      	cbnz	r4, 1902 <_spi_nor_read+0x6a>
    1900:	0034      	movs	r4, r6
    1902:	0020      	movs	r0, r4
    1904:	b007      	add	sp, #28
    1906:	bdf0      	pop	{r4, r5, r6, r7, pc}
    1908:	2401      	movs	r4, #1
    190a:	4264      	negs	r4, r4
    190c:	e7f9      	b.n	1902 <_spi_nor_read+0x6a>

0000190e <_spi_nor_write_reg>:
    190e:	b5f0      	push	{r4, r5, r6, r7, lr}
    1910:	b085      	sub	sp, #20
    1912:	9300      	str	r3, [sp, #0]
    1914:	466b      	mov	r3, sp
    1916:	0005      	movs	r5, r0
    1918:	6840      	ldr	r0, [r0, #4]
    191a:	1ddc      	adds	r4, r3, #7
    191c:	71d9      	strb	r1, [r3, #7]
    191e:	0016      	movs	r6, r2
    1920:	f7ff fac0 	bl	ea4 <spi_acquire>
    1924:	0003      	movs	r3, r0
    1926:	b9f0      	cbnz	r0, 1966 <_spi_nor_write_reg+0x58>
    1928:	2101      	movs	r1, #1
    192a:	af02      	add	r7, sp, #8
    192c:	6868      	ldr	r0, [r5, #4]
    192e:	9402      	str	r4, [sp, #8]
    1930:	6079      	str	r1, [r7, #4]
    1932:	b1a6      	cbz	r6, 195e <_spi_nor_write_reg+0x50>
    1934:	003a      	movs	r2, r7
    1936:	f7ff fb1f 	bl	f78 <spi_transfer_bytes>
    193a:	0004      	movs	r4, r0
    193c:	b948      	cbnz	r0, 1952 <_spi_nor_write_reg+0x44>
    193e:	9b00      	ldr	r3, [sp, #0]
    1940:	003a      	movs	r2, r7
    1942:	607b      	str	r3, [r7, #4]
    1944:	0021      	movs	r1, r4
    1946:	0023      	movs	r3, r4
    1948:	6868      	ldr	r0, [r5, #4]
    194a:	9602      	str	r6, [sp, #8]
    194c:	f7ff fb14 	bl	f78 <spi_transfer_bytes>
    1950:	0004      	movs	r4, r0
    1952:	6868      	ldr	r0, [r5, #4]
    1954:	f7ff fae8 	bl	f28 <spi_release>
    1958:	0020      	movs	r0, r4
    195a:	b005      	add	sp, #20
    195c:	bdf0      	pop	{r4, r5, r6, r7, pc}
    195e:	0033      	movs	r3, r6
    1960:	003a      	movs	r2, r7
    1962:	0031      	movs	r1, r6
    1964:	e7f2      	b.n	194c <_spi_nor_write_reg+0x3e>
    1966:	2401      	movs	r4, #1
    1968:	4264      	negs	r4, r4
    196a:	e7f5      	b.n	1958 <_spi_nor_write_reg+0x4a>

0000196c <_spi_nor_read_reg>:
    196c:	b5f0      	push	{r4, r5, r6, r7, lr}
    196e:	b087      	sub	sp, #28
    1970:	001e      	movs	r6, r3
    1972:	466b      	mov	r3, sp
    1974:	0005      	movs	r5, r0
    1976:	6840      	ldr	r0, [r0, #4]
    1978:	1ddc      	adds	r4, r3, #7
    197a:	71d9      	strb	r1, [r3, #7]
    197c:	0017      	movs	r7, r2
    197e:	f7ff fa91 	bl	ea4 <spi_acquire>
    1982:	0003      	movs	r3, r0
    1984:	b9b8      	cbnz	r0, 19b6 <_spi_nor_read_reg+0x4a>
    1986:	2101      	movs	r1, #1
    1988:	6868      	ldr	r0, [r5, #4]
    198a:	aa02      	add	r2, sp, #8
    198c:	9402      	str	r4, [sp, #8]
    198e:	9103      	str	r1, [sp, #12]
    1990:	f7ff faf2 	bl	f78 <spi_transfer_bytes>
    1994:	0004      	movs	r4, r0
    1996:	b940      	cbnz	r0, 19aa <_spi_nor_read_reg+0x3e>
    1998:	0022      	movs	r2, r4
    199a:	0021      	movs	r1, r4
    199c:	ab04      	add	r3, sp, #16
    199e:	6868      	ldr	r0, [r5, #4]
    19a0:	9704      	str	r7, [sp, #16]
    19a2:	605e      	str	r6, [r3, #4]
    19a4:	f7ff fae8 	bl	f78 <spi_transfer_bytes>
    19a8:	0004      	movs	r4, r0
    19aa:	6868      	ldr	r0, [r5, #4]
    19ac:	f7ff fabc 	bl	f28 <spi_release>
    19b0:	0020      	movs	r0, r4
    19b2:	b007      	add	sp, #28
    19b4:	bdf0      	pop	{r4, r5, r6, r7, pc}
    19b6:	2401      	movs	r4, #1
    19b8:	4264      	negs	r4, r4
    19ba:	e7f9      	b.n	19b0 <_spi_nor_read_reg+0x44>

000019bc <write_enable.isra.0>:
    19bc:	b510      	push	{r4, lr}
    19be:	6883      	ldr	r3, [r0, #8]
    19c0:	6984      	ldr	r4, [r0, #24]
    19c2:	6a5b      	ldr	r3, [r3, #36]	@ 0x24
    19c4:	7859      	ldrb	r1, [r3, #1]
    19c6:	2300      	movs	r3, #0
    19c8:	001a      	movs	r2, r3
    19ca:	47a0      	blx	r4
    19cc:	bd10      	pop	{r4, pc}

000019ce <spi_nor_write>:
    19ce:	b5f0      	push	{r4, r5, r6, r7, lr}
    19d0:	6806      	ldr	r6, [r0, #0]
    19d2:	b085      	sub	sp, #20
    19d4:	6835      	ldr	r5, [r6, #0]
    19d6:	9102      	str	r1, [sp, #8]
    19d8:	9201      	str	r2, [sp, #4]
    19da:	9303      	str	r3, [sp, #12]
    19dc:	b105      	cbz	r5, 19e0 <spi_nor_write+0x12>
    19de:	e7fe      	b.n	19de <spi_nor_write+0x10>
    19e0:	2301      	movs	r3, #1
    19e2:	6033      	str	r3, [r6, #0]
    19e4:	9b01      	ldr	r3, [sp, #4]
    19e6:	429d      	cmp	r5, r3
    19e8:	d301      	bcc.n	19ee <spi_nor_write+0x20>
    19ea:	2400      	movs	r4, #0
    19ec:	e021      	b.n	1a32 <spi_nor_write+0x64>
    19ee:	9b02      	ldr	r3, [sp, #8]
    19f0:	9a01      	ldr	r2, [sp, #4]
    19f2:	18ec      	adds	r4, r5, r3
    19f4:	68b3      	ldr	r3, [r6, #8]
    19f6:	1b52      	subs	r2, r2, r5
    19f8:	8bdf      	ldrh	r7, [r3, #30]
    19fa:	1e7b      	subs	r3, r7, #1
    19fc:	4023      	ands	r3, r4
    19fe:	1aff      	subs	r7, r7, r3
    1a00:	4297      	cmp	r7, r2
    1a02:	d900      	bls.n	1a06 <spi_nor_write+0x38>
    1a04:	0017      	movs	r7, r2
    1a06:	0030      	movs	r0, r6
    1a08:	f7ff ffd8 	bl	19bc <write_enable.isra.0>
    1a0c:	6a32      	ldr	r2, [r6, #32]
    1a0e:	9b03      	ldr	r3, [sp, #12]
    1a10:	4694      	mov	ip, r2
    1a12:	0021      	movs	r1, r4
    1a14:	003a      	movs	r2, r7
    1a16:	4664      	mov	r4, ip
    1a18:	0030      	movs	r0, r6
    1a1a:	195b      	adds	r3, r3, r5
    1a1c:	47a0      	blx	r4
    1a1e:	1e04      	subs	r4, r0, #0
    1a20:	db07      	blt.n	1a32 <spi_nor_write+0x64>
    1a22:	f240 31e8 	movw	r1, #1000	@ 0x3e8
    1a26:	0030      	movs	r0, r6
    1a28:	f7ff fe9a 	bl	1760 <spi_nor_wait_till_ready_with_timeout>
    1a2c:	b130      	cbz	r0, 1a3c <spi_nor_write+0x6e>
    1a2e:	2401      	movs	r4, #1
    1a30:	4264      	negs	r4, r4
    1a32:	2300      	movs	r3, #0
    1a34:	0020      	movs	r0, r4
    1a36:	6033      	str	r3, [r6, #0]
    1a38:	b005      	add	sp, #20
    1a3a:	bdf0      	pop	{r4, r5, r6, r7, pc}
    1a3c:	9b0a      	ldr	r3, [sp, #40]	@ 0x28
    1a3e:	9a0a      	ldr	r2, [sp, #40]	@ 0x28
    1a40:	681b      	ldr	r3, [r3, #0]
    1a42:	192d      	adds	r5, r5, r4
    1a44:	191b      	adds	r3, r3, r4
    1a46:	6013      	str	r3, [r2, #0]
    1a48:	42a7      	cmp	r7, r4
    1a4a:	d0cb      	beq.n	19e4 <spi_nor_write+0x16>
    1a4c:	e7ef      	b.n	1a2e <spi_nor_write+0x60>
	...

00001a50 <spi_nor_init>:
    1a50:	2100      	movs	r1, #0
    1a52:	b5f0      	push	{r4, r5, r6, r7, lr}
    1a54:	4b48      	ldr	r3, [pc, #288]	@ (1b78 <spi_nor_init+0x128>)
    1a56:	6804      	ldr	r4, [r0, #0]
    1a58:	b085      	sub	sp, #20
    1a5a:	6163      	str	r3, [r4, #20]
    1a5c:	4b47      	ldr	r3, [pc, #284]	@ (1b7c <spi_nor_init+0x12c>)
    1a5e:	2206      	movs	r2, #6
    1a60:	61a3      	str	r3, [r4, #24]
    1a62:	4b47      	ldr	r3, [pc, #284]	@ (1b80 <spi_nor_init+0x130>)
    1a64:	6261      	str	r1, [r4, #36]	@ 0x24
    1a66:	61e3      	str	r3, [r4, #28]
    1a68:	4b46      	ldr	r3, [pc, #280]	@ (1b84 <spi_nor_init+0x134>)
    1a6a:	0005      	movs	r5, r0
    1a6c:	6223      	str	r3, [r4, #32]
    1a6e:	a802      	add	r0, sp, #8
    1a70:	f7fe fc8c 	bl	38c <memset>
    1a74:	2306      	movs	r3, #6
    1a76:	219f      	movs	r1, #159	@ 0x9f
    1a78:	0020      	movs	r0, r4
    1a7a:	aa02      	add	r2, sp, #8
    1a7c:	f7ff ff76 	bl	196c <_spi_nor_read_reg>
    1a80:	0006      	movs	r6, r0
    1a82:	b120      	cbz	r0, 1a8e <spi_nor_init+0x3e>
    1a84:	2601      	movs	r6, #1
    1a86:	4276      	negs	r6, r6
    1a88:	0030      	movs	r0, r6
    1a8a:	b005      	add	sp, #20
    1a8c:	bdf0      	pop	{r4, r5, r6, r7, pc}
    1a8e:	4f3e      	ldr	r7, [pc, #248]	@ (1b88 <spi_nor_init+0x138>)
    1a90:	2203      	movs	r2, #3
    1a92:	0038      	movs	r0, r7
    1a94:	a902      	add	r1, sp, #8
    1a96:	f003 f9c1 	bl	4e1c <memcmp>
    1a9a:	2301      	movs	r3, #1
    1a9c:	3f10      	subs	r7, #16
    1a9e:	752b      	strb	r3, [r5, #20]
    1aa0:	b120      	cbz	r0, 1aac <spi_nor_init+0x5c>
    1aa2:	9b02      	ldr	r3, [sp, #8]
    1aa4:	3b01      	subs	r3, #1
    1aa6:	3303      	adds	r3, #3
    1aa8:	d8ec      	bhi.n	1a84 <spi_nor_init+0x34>
    1aaa:	4f38      	ldr	r7, [pc, #224]	@ (1b8c <spi_nor_init+0x13c>)
    1aac:	2200      	movs	r2, #0
    1aae:	61ef      	str	r7, [r5, #28]
    1ab0:	60a7      	str	r7, [r4, #8]
    1ab2:	6022      	str	r2, [r4, #0]
    1ab4:	8c7a      	ldrh	r2, [r7, #34]	@ 0x22
    1ab6:	0551      	lsls	r1, r2, #21
    1ab8:	d503      	bpl.n	1ac2 <spi_nor_init+0x72>
    1aba:	2110      	movs	r1, #16
    1abc:	68e0      	ldr	r0, [r4, #12]
    1abe:	4301      	orrs	r1, r0
    1ac0:	60e1      	str	r1, [r4, #12]
    1ac2:	8bb9      	ldrh	r1, [r7, #28]
    1ac4:	69b8      	ldr	r0, [r7, #24]
    1ac6:	4341      	muls	r1, r0
    1ac8:	60e9      	str	r1, [r5, #12]
    1aca:	6a79      	ldr	r1, [r7, #36]	@ 0x24
    1acc:	07d2      	lsls	r2, r2, #31
    1ace:	d54e      	bpl.n	1b6e <spi_nor_init+0x11e>
    1ad0:	f241 0200 	movw	r2, #4096	@ 0x1000
    1ad4:	60aa      	str	r2, [r5, #8]
    1ad6:	7aca      	ldrb	r2, [r1, #11]
    1ad8:	7422      	strb	r2, [r4, #16]
    1ada:	8bfa      	ldrh	r2, [r7, #30]
    1adc:	612a      	str	r2, [r5, #16]
    1ade:	6a7a      	ldr	r2, [r7, #36]	@ 0x24
    1ae0:	7a12      	ldrb	r2, [r2, #8]
    1ae2:	7462      	strb	r2, [r4, #17]
    1ae4:	6a7a      	ldr	r2, [r7, #36]	@ 0x24
    1ae6:	7a92      	ldrb	r2, [r2, #10]
    1ae8:	74a2      	strb	r2, [r4, #18]
    1aea:	6aa2      	ldr	r2, [r4, #40]	@ 0x28
    1aec:	b14a      	cbz	r2, 1b02 <spi_nor_init+0xb2>
    1aee:	6ae2      	ldr	r2, [r4, #44]	@ 0x2c
    1af0:	b13a      	cbz	r2, 1b02 <spi_nor_init+0xb2>
    1af2:	6b22      	ldr	r2, [r4, #48]	@ 0x30
    1af4:	b12a      	cbz	r2, 1b02 <spi_nor_init+0xb2>
    1af6:	4a26      	ldr	r2, [pc, #152]	@ (1b90 <spi_nor_init+0x140>)
    1af8:	622a      	str	r2, [r5, #32]
    1afa:	4a26      	ldr	r2, [pc, #152]	@ (1b94 <spi_nor_init+0x144>)
    1afc:	626a      	str	r2, [r5, #36]	@ 0x24
    1afe:	4a26      	ldr	r2, [pc, #152]	@ (1b98 <spi_nor_init+0x148>)
    1b00:	62aa      	str	r2, [r5, #40]	@ 0x28
    1b02:	8c7a      	ldrh	r2, [r7, #34]	@ 0x22
    1b04:	0611      	lsls	r1, r2, #24
    1b06:	d503      	bpl.n	1b10 <spi_nor_init+0xc0>
    1b08:	2101      	movs	r1, #1
    1b0a:	68e0      	ldr	r0, [r4, #12]
    1b0c:	4301      	orrs	r1, r0
    1b0e:	60e1      	str	r1, [r4, #12]
    1b10:	0591      	lsls	r1, r2, #22
    1b12:	d503      	bpl.n	1b1c <spi_nor_init+0xcc>
    1b14:	2102      	movs	r1, #2
    1b16:	68e0      	ldr	r0, [r4, #12]
    1b18:	4301      	orrs	r1, r0
    1b1a:	60e1      	str	r1, [r4, #12]
    1b1c:	04d1      	lsls	r1, r2, #19
    1b1e:	d503      	bpl.n	1b28 <spi_nor_init+0xd8>
    1b20:	2104      	movs	r1, #4
    1b22:	68e0      	ldr	r0, [r4, #12]
    1b24:	4301      	orrs	r1, r0
    1b26:	60e1      	str	r1, [r4, #12]
    1b28:	0451      	lsls	r1, r2, #17
    1b2a:	d503      	bpl.n	1b34 <spi_nor_init+0xe4>
    1b2c:	2120      	movs	r1, #32
    1b2e:	68e0      	ldr	r0, [r4, #12]
    1b30:	4301      	orrs	r1, r0
    1b32:	60e1      	str	r1, [r4, #12]
    1b34:	7c3b      	ldrb	r3, [r7, #16]
    1b36:	2b1f      	cmp	r3, #31
    1b38:	d005      	beq.n	1b46 <spi_nor_init+0xf6>
    1b3a:	2b89      	cmp	r3, #137	@ 0x89
    1b3c:	d003      	beq.n	1b46 <spi_nor_init+0xf6>
    1b3e:	2bbf      	cmp	r3, #191	@ 0xbf
    1b40:	d001      	beq.n	1b46 <spi_nor_init+0xf6>
    1b42:	05d2      	lsls	r2, r2, #23
    1b44:	d5a0      	bpl.n	1a88 <spi_nor_init+0x38>
    1b46:	0020      	movs	r0, r4
    1b48:	f7ff ff38 	bl	19bc <write_enable.isra.0>
    1b4c:	466a      	mov	r2, sp
    1b4e:	2300      	movs	r3, #0
    1b50:	71d3      	strb	r3, [r2, #7]
    1b52:	68a3      	ldr	r3, [r4, #8]
    1b54:	0020      	movs	r0, r4
    1b56:	6a5b      	ldr	r3, [r3, #36]	@ 0x24
    1b58:	69a5      	ldr	r5, [r4, #24]
    1b5a:	7919      	ldrb	r1, [r3, #4]
    1b5c:	3207      	adds	r2, #7
    1b5e:	2301      	movs	r3, #1
    1b60:	47a8      	blx	r5
    1b62:	f240 31e8 	movw	r1, #1000	@ 0x3e8
    1b66:	0020      	movs	r0, r4
    1b68:	f7ff fdfa 	bl	1760 <spi_nor_wait_till_ready_with_timeout>
    1b6c:	e78c      	b.n	1a88 <spi_nor_init+0x38>
    1b6e:	69ba      	ldr	r2, [r7, #24]
    1b70:	60aa      	str	r2, [r5, #8]
    1b72:	7b4a      	ldrb	r2, [r1, #13]
    1b74:	e7b0      	b.n	1ad8 <spi_nor_init+0x88>
    1b76:	46c0      	nop			@ (mov r8, r8)
    1b78:	0000196d 			@ <UNDEFINED> instruction: 0000196d
    1b7c:	0000190f 			@ <UNDEFINED> instruction: 0000190f
    1b80:	00001899 			@ <UNDEFINED> instruction: 00001899
    1b84:	0000181f 			@ <UNDEFINED> instruction: 0000181f
    1b88:	0000598c 			@ <UNDEFINED> instruction: 0000598c
    1b8c:	000059a4 			@ <UNDEFINED> instruction: 000059a4
    1b90:	000016cb 			@ <UNDEFINED> instruction: 000016cb
    1b94:	000016e3 			@ <UNDEFINED> instruction: 000016e3
    1b98:	000016fb 	strdeq	r1, [r0], -fp

00001b9c <spi_nor_erase>:
    1b9c:	6883      	ldr	r3, [r0, #8]
    1b9e:	b5f0      	push	{r4, r5, r6, r7, lr}
    1ba0:	0015      	movs	r5, r2
    1ba2:	fbb2 f2f3 	udiv	r2, r2, r3
    1ba6:	4353      	muls	r3, r2
    1ba8:	b085      	sub	sp, #20
    1baa:	0006      	movs	r6, r0
    1bac:	6804      	ldr	r4, [r0, #0]
    1bae:	9101      	str	r1, [sp, #4]
    1bb0:	429d      	cmp	r5, r3
    1bb2:	d15f      	bne.n	1c74 <spi_nor_erase+0xd8>
    1bb4:	6823      	ldr	r3, [r4, #0]
    1bb6:	b103      	cbz	r3, 1bba <spi_nor_erase+0x1e>
    1bb8:	e7fe      	b.n	1bb8 <spi_nor_erase+0x1c>
    1bba:	2301      	movs	r3, #1
    1bbc:	6023      	str	r3, [r4, #0]
    1bbe:	68c3      	ldr	r3, [r0, #12]
    1bc0:	42ab      	cmp	r3, r5
    1bc2:	d144      	bne.n	1c4e <spi_nor_erase+0xb2>
    1bc4:	68e2      	ldr	r2, [r4, #12]
    1bc6:	2304      	movs	r3, #4
    1bc8:	0011      	movs	r1, r2
    1bca:	4019      	ands	r1, r3
    1bcc:	000f      	movs	r7, r1
    1bce:	421a      	tst	r2, r3
    1bd0:	d13d      	bne.n	1c4e <spi_nor_erase+0xb2>
    1bd2:	0020      	movs	r0, r4
    1bd4:	f7ff fef2 	bl	19bc <write_enable.isra.0>
    1bd8:	68a3      	ldr	r3, [r4, #8]
    1bda:	003a      	movs	r2, r7
    1bdc:	6a5b      	ldr	r3, [r3, #36]	@ 0x24
    1bde:	0020      	movs	r0, r4
    1be0:	7b99      	ldrb	r1, [r3, #14]
    1be2:	69a5      	ldr	r5, [r4, #24]
    1be4:	003b      	movs	r3, r7
    1be6:	47a8      	blx	r5
    1be8:	b128      	cbz	r0, 1bf6 <spi_nor_erase+0x5a>
    1bea:	2001      	movs	r0, #1
    1bec:	4240      	negs	r0, r0
    1bee:	2300      	movs	r3, #0
    1bf0:	6023      	str	r3, [r4, #0]
    1bf2:	b005      	add	sp, #20
    1bf4:	bdf0      	pop	{r4, r5, r6, r7, pc}
    1bf6:	68f3      	ldr	r3, [r6, #12]
    1bf8:	68b2      	ldr	r2, [r6, #8]
    1bfa:	f240 31e8 	movw	r1, #1000	@ 0x3e8
    1bfe:	fbb3 f3f2 	udiv	r3, r3, r2
    1c02:	0020      	movs	r0, r4
    1c04:	4359      	muls	r1, r3
    1c06:	f7ff fdab 	bl	1760 <spi_nor_wait_till_ready_with_timeout>
    1c0a:	2800      	cmp	r0, #0
    1c0c:	d1ed      	bne.n	1bea <spi_nor_erase+0x4e>
    1c0e:	68a3      	ldr	r3, [r4, #8]
    1c10:	0020      	movs	r0, r4
    1c12:	6a5b      	ldr	r3, [r3, #36]	@ 0x24
    1c14:	69a5      	ldr	r5, [r4, #24]
    1c16:	7959      	ldrb	r1, [r3, #5]
    1c18:	2300      	movs	r3, #0
    1c1a:	001a      	movs	r2, r3
    1c1c:	47a8      	blx	r5
    1c1e:	2000      	movs	r0, #0
    1c20:	e7e5      	b.n	1bee <spi_nor_erase+0x52>
    1c22:	0020      	movs	r0, r4
    1c24:	f7ff feca 	bl	19bc <write_enable.isra.0>
    1c28:	6a63      	ldr	r3, [r4, #36]	@ 0x24
    1c2a:	b19b      	cbz	r3, 1c54 <spi_nor_erase+0xb8>
    1c2c:	0020      	movs	r0, r4
    1c2e:	9901      	ldr	r1, [sp, #4]
    1c30:	4798      	blx	r3
    1c32:	2800      	cmp	r0, #0
    1c34:	d1db      	bne.n	1bee <spi_nor_erase+0x52>
    1c36:	68b3      	ldr	r3, [r6, #8]
    1c38:	9a01      	ldr	r2, [sp, #4]
    1c3a:	f240 31e8 	movw	r1, #1000	@ 0x3e8
    1c3e:	18d2      	adds	r2, r2, r3
    1c40:	0020      	movs	r0, r4
    1c42:	9201      	str	r2, [sp, #4]
    1c44:	1aed      	subs	r5, r5, r3
    1c46:	f7ff fd8b 	bl	1760 <spi_nor_wait_till_ready_with_timeout>
    1c4a:	2800      	cmp	r0, #0
    1c4c:	d1cd      	bne.n	1bea <spi_nor_erase+0x4e>
    1c4e:	2d00      	cmp	r5, #0
    1c50:	d1e7      	bne.n	1c22 <spi_nor_erase+0x86>
    1c52:	e7dc      	b.n	1c0e <spi_nor_erase+0x72>
    1c54:	68a3      	ldr	r3, [r4, #8]
    1c56:	9801      	ldr	r0, [sp, #4]
    1c58:	8c1b      	ldrh	r3, [r3, #32]
    1c5a:	aa03      	add	r2, sp, #12
    1c5c:	0019      	movs	r1, r3
    1c5e:	3901      	subs	r1, #1
    1c60:	d205      	bcs.n	1c6e <spi_nor_erase+0xd2>
    1c62:	69a0      	ldr	r0, [r4, #24]
    1c64:	7c21      	ldrb	r1, [r4, #16]
    1c66:	0007      	movs	r7, r0
    1c68:	0020      	movs	r0, r4
    1c6a:	47b8      	blx	r7
    1c6c:	e7e1      	b.n	1c32 <spi_nor_erase+0x96>
    1c6e:	5450      	strb	r0, [r2, r1]
    1c70:	0a00      	lsrs	r0, r0, #8
    1c72:	e7f4      	b.n	1c5e <spi_nor_erase+0xc2>
    1c74:	2001      	movs	r0, #1
    1c76:	4240      	negs	r0, r0
    1c78:	e7bb      	b.n	1bf2 <spi_nor_erase+0x56>
	...

00001c7c <fwupdate_next>:
    1c7c:	b5f8      	push	{r3, r4, r5, r6, r7, lr}
    1c7e:	0006      	movs	r6, r0
    1c80:	000c      	movs	r4, r1
    1c82:	b931      	cbnz	r1, 1c92 <fwupdate_next+0x16>
    1c84:	f240 12c0 	movw	r2, #448	@ 0x1c0
    1c88:	4825      	ldr	r0, [pc, #148]	@ (1d20 <fwupdate_next+0xa4>)
    1c8a:	f7fe fb7f 	bl	38c <memset>
    1c8e:	2004      	movs	r0, #4
    1c90:	bdf8      	pop	{r3, r4, r5, r6, r7, pc}
    1c92:	4d23      	ldr	r5, [pc, #140]	@ (1d20 <fwupdate_next+0xa4>)
    1c94:	68e9      	ldr	r1, [r5, #12]
    1c96:	b931      	cbnz	r1, 1ca6 <fwupdate_next+0x2a>
    1c98:	f240 12c0 	movw	r2, #448	@ 0x1c0
    1c9c:	0028      	movs	r0, r5
    1c9e:	f7fe fb75 	bl	38c <memset>
    1ca2:	2005      	movs	r0, #5
    1ca4:	e7f4      	b.n	1c90 <fwupdate_next+0x14>
    1ca6:	686b      	ldr	r3, [r5, #4]
    1ca8:	191a      	adds	r2, r3, r4
    1caa:	4291      	cmp	r1, r2
    1cac:	d200      	bcs.n	1cb0 <fwupdate_next+0x34>
    1cae:	1acc      	subs	r4, r1, r3
    1cb0:	68a9      	ldr	r1, [r5, #8]
    1cb2:	2c00      	cmp	r4, #0
    1cb4:	dc04      	bgt.n	1cc0 <fwupdate_next+0x44>
    1cb6:	68eb      	ldr	r3, [r5, #12]
    1cb8:	428b      	cmp	r3, r1
    1cba:	d91e      	bls.n	1cfa <fwupdate_next+0x7e>
    1cbc:	2000      	movs	r0, #0
    1cbe:	e7e7      	b.n	1c90 <fwupdate_next+0x14>
    1cc0:	f240 1300 	movw	r3, #256	@ 0x100
    1cc4:	0027      	movs	r7, r4
    1cc6:	429c      	cmp	r4, r3
    1cc8:	dd00      	ble.n	1ccc <fwupdate_next+0x50>
    1cca:	001f      	movs	r7, r3
    1ccc:	050b      	lsls	r3, r1, #20
    1cce:	b933      	cbnz	r3, 1cde <fwupdate_next+0x62>
    1cd0:	33b5      	adds	r3, #181	@ 0xb5
    1cd2:	33ff      	adds	r3, #255	@ 0xff
    1cd4:	f241 0200 	movw	r2, #4096	@ 0x1000
    1cd8:	58e8      	ldr	r0, [r5, r3]
    1cda:	f000 f933 	bl	1f44 <region_erase>
    1cde:	f240 10b4 	movw	r0, #436	@ 0x1b4
    1ce2:	003b      	movs	r3, r7
    1ce4:	0032      	movs	r2, r6
    1ce6:	68a9      	ldr	r1, [r5, #8]
    1ce8:	5828      	ldr	r0, [r5, r0]
    1cea:	f000 f91b 	bl	1f24 <region_write>
    1cee:	68ab      	ldr	r3, [r5, #8]
    1cf0:	1be4      	subs	r4, r4, r7
    1cf2:	19db      	adds	r3, r3, r7
    1cf4:	60ab      	str	r3, [r5, #8]
    1cf6:	19f6      	adds	r6, r6, r7
    1cf8:	e7da      	b.n	1cb0 <fwupdate_next+0x34>
    1cfa:	f240 10b4 	movw	r0, #436	@ 0x1b4
    1cfe:	4c09      	ldr	r4, [pc, #36]	@ (1d24 <fwupdate_next+0xa8>)
    1d00:	f240 1300 	movw	r3, #256	@ 0x100
    1d04:	0022      	movs	r2, r4
    1d06:	2100      	movs	r1, #0
    1d08:	5828      	ldr	r0, [r5, r0]
    1d0a:	f000 f90b 	bl	1f24 <region_write>
    1d0e:	0020      	movs	r0, r4
    1d10:	f240 12c0 	movw	r2, #448	@ 0x1c0
    1d14:	2100      	movs	r1, #0
    1d16:	3814      	subs	r0, #20
    1d18:	f7fe fb38 	bl	38c <memset>
    1d1c:	e7ce      	b.n	1cbc <fwupdate_next+0x40>
    1d1e:	46c0      	nop			@ (mov r8, r8)
    1d20:	20000ea0 			@ <UNDEFINED> instruction: 20000ea0
    1d24:	20000eb4 			@ <UNDEFINED> instruction: 20000eb4

00001d28 <check_firstblock>:
    1d28:	b570      	push	{r4, r5, r6, lr}
    1d2a:	0005      	movs	r5, r0
    1d2c:	29ff      	cmp	r1, #255	@ 0xff
    1d2e:	d917      	bls.n	1d60 <check_firstblock+0x38>
    1d30:	f240 13b0 	movw	r3, #432	@ 0x1b0
    1d34:	4c0d      	ldr	r4, [pc, #52]	@ (1d6c <check_firstblock+0x44>)
    1d36:	4a0e      	ldr	r2, [pc, #56]	@ (1d70 <check_firstblock+0x48>)
    1d38:	0001      	movs	r1, r0
    1d3a:	58d2      	ldr	r2, [r2, r3]
    1d3c:	0020      	movs	r0, r4
    1d3e:	f003 f87b 	bl	4e38 <memcpy>
    1d42:	0020      	movs	r0, r4
    1d44:	f000 f956 	bl	1ff4 <verify_header_crc>
    1d48:	2800      	cmp	r0, #0
    1d4a:	db0c      	blt.n	1d66 <check_firstblock+0x3e>
    1d4c:	1f60      	subs	r0, r4, #5
    1d4e:	f240 1200 	movw	r2, #256	@ 0x100
    1d52:	0029      	movs	r1, r5
    1d54:	38ff      	subs	r0, #255	@ 0xff
    1d56:	f003 f86f 	bl	4e38 <memcpy>
    1d5a:	f240 1000 	movw	r0, #256	@ 0x100
    1d5e:	bd70      	pop	{r4, r5, r6, pc}
    1d60:	2001      	movs	r0, #1
    1d62:	4240      	negs	r0, r0
    1d64:	e7fb      	b.n	1d5e <check_firstblock+0x36>
    1d66:	2002      	movs	r0, #2
    1d68:	e7fb      	b.n	1d62 <check_firstblock+0x3a>
    1d6a:	46c0      	nop			@ (mov r8, r8)
    1d6c:	20000fb8 			@ <UNDEFINED> instruction: 20000fb8
    1d70:	20000ea0 			@ <UNDEFINED> instruction: 20000ea0

00001d74 <flash_update_begin>:
    1d74:	f240 12b0 	movw	r2, #432	@ 0x1b0
    1d78:	b570      	push	{r4, r5, r6, lr}
    1d7a:	4c1c      	ldr	r4, [pc, #112]	@ (1dec <flash_update_begin+0x78>)
    1d7c:	0006      	movs	r6, r0
    1d7e:	58a2      	ldr	r2, [r4, r2]
    1d80:	6923      	ldr	r3, [r4, #16]
    1d82:	000d      	movs	r5, r1
    1d84:	189b      	adds	r3, r3, r2
    1d86:	68e2      	ldr	r2, [r4, #12]
    1d88:	429a      	cmp	r2, r3
    1d8a:	d907      	bls.n	1d9c <flash_update_begin+0x28>
    1d8c:	f240 12c0 	movw	r2, #448	@ 0x1c0
    1d90:	2100      	movs	r1, #0
    1d92:	0020      	movs	r0, r4
    1d94:	f7fe fafa 	bl	38c <memset>
    1d98:	2002      	movs	r0, #2
    1d9a:	bd70      	pop	{r4, r5, r6, pc}
    1d9c:	f7ff ffc4 	bl	1d28 <check_firstblock>
    1da0:	2800      	cmp	r0, #0
    1da2:	dc07      	bgt.n	1db4 <flash_update_begin+0x40>
    1da4:	f240 12c0 	movw	r2, #448	@ 0x1c0
    1da8:	2100      	movs	r1, #0
    1daa:	0020      	movs	r0, r4
    1dac:	f7fe faee 	bl	38c <memset>
    1db0:	2003      	movs	r0, #3
    1db2:	e7f2      	b.n	1d9a <flash_update_begin+0x26>
    1db4:	68a3      	ldr	r3, [r4, #8]
    1db6:	3d01      	subs	r5, #1
    1db8:	3301      	adds	r3, #1
    1dba:	33ff      	adds	r3, #255	@ 0xff
    1dbc:	60a3      	str	r3, [r4, #8]
    1dbe:	f240 13b8 	movw	r3, #440	@ 0x1b8
    1dc2:	58e3      	ldr	r3, [r4, r3]
    1dc4:	4798      	blx	r3
    1dc6:	f240 13b4 	movw	r3, #436	@ 0x1b4
    1dca:	3601      	adds	r6, #1
    1dcc:	58e0      	ldr	r0, [r4, r3]
    1dce:	3dff      	subs	r5, #255	@ 0xff
    1dd0:	f000 f884 	bl	1edc <region_erase_header>
    1dd4:	36ff      	adds	r6, #255	@ 0xff
    1dd6:	2064      	movs	r0, #100	@ 0x64
    1dd8:	2d00      	cmp	r5, #0
    1dda:	d0de      	beq.n	1d9a <flash_update_begin+0x26>
    1ddc:	f240 13bc 	movw	r3, #444	@ 0x1bc
    1de0:	0029      	movs	r1, r5
    1de2:	0030      	movs	r0, r6
    1de4:	58e3      	ldr	r3, [r4, r3]
    1de6:	4798      	blx	r3
    1de8:	e7d7      	b.n	1d9a <flash_update_begin+0x26>
    1dea:	46c0      	nop			@ (mov r8, r8)
    1dec:	20000ea0 			@ <UNDEFINED> instruction: 20000ea0

00001df0 <secure_update_begin>:
    1df0:	4b0c      	ldr	r3, [pc, #48]	@ (1e24 <secure_update_begin+0x34>)
    1df2:	b570      	push	{r4, r5, r6, lr}
    1df4:	60da      	str	r2, [r3, #12]
    1df6:	4a0c      	ldr	r2, [pc, #48]	@ (1e28 <secure_update_begin+0x38>)
    1df8:	f240 14b8 	movw	r4, #440	@ 0x1b8
    1dfc:	6812      	ldr	r2, [r2, #0]
    1dfe:	4d0b      	ldr	r5, [pc, #44]	@ (1e2c <secure_update_begin+0x3c>)
    1e00:	6b52      	ldr	r2, [r2, #52]	@ 0x34
    1e02:	511d      	str	r5, [r3, r4]
    1e04:	611a      	str	r2, [r3, #16]
    1e06:	f240 12b0 	movw	r2, #432	@ 0x1b0
    1e0a:	4d09      	ldr	r5, [pc, #36]	@ (1e30 <secure_update_begin+0x40>)
    1e0c:	3404      	adds	r4, #4
    1e0e:	511d      	str	r5, [r3, r4]
    1e10:	3c29      	subs	r4, #41	@ 0x29
    1e12:	3cff      	subs	r4, #255	@ 0xff
    1e14:	509c      	str	r4, [r3, r2]
    1e16:	2400      	movs	r4, #0
    1e18:	3a04      	subs	r2, #4
    1e1a:	509c      	str	r4, [r3, r2]
    1e1c:	f7ff ffaa 	bl	1d74 <flash_update_begin>
    1e20:	bd70      	pop	{r4, r5, r6, pc}
    1e22:	46c0      	nop			@ (mov r8, r8)
    1e24:	20000ea0 			@ <UNDEFINED> instruction: 20000ea0
    1e28:	20000d0c 			@ <UNDEFINED> instruction: 20000d0c
    1e2c:	00004871 			@ <UNDEFINED> instruction: 00004871
    1e30:	00001c7d 			@ <UNDEFINED> instruction: 00001c7d

00001e34 <nonsecure_update_begin>:
    1e34:	4b0d      	ldr	r3, [pc, #52]	@ (1e6c <nonsecure_update_begin+0x38>)
    1e36:	b570      	push	{r4, r5, r6, lr}
    1e38:	60da      	str	r2, [r3, #12]
    1e3a:	4a0d      	ldr	r2, [pc, #52]	@ (1e70 <nonsecure_update_begin+0x3c>)
    1e3c:	f240 14b8 	movw	r4, #440	@ 0x1b8
    1e40:	6812      	ldr	r2, [r2, #0]
    1e42:	4d0c      	ldr	r5, [pc, #48]	@ (1e74 <nonsecure_update_begin+0x40>)
    1e44:	6c92      	ldr	r2, [r2, #72]	@ 0x48
    1e46:	511d      	str	r5, [r3, r4]
    1e48:	611a      	str	r2, [r3, #16]
    1e4a:	2200      	movs	r2, #0
    1e4c:	4d0a      	ldr	r5, [pc, #40]	@ (1e78 <nonsecure_update_begin+0x44>)
    1e4e:	3404      	adds	r4, #4
    1e50:	511d      	str	r5, [r3, r4]
    1e52:	605a      	str	r2, [r3, #4]
    1e54:	609a      	str	r2, [r3, #8]
    1e56:	3c29      	subs	r4, #41	@ 0x29
    1e58:	32b1      	adds	r2, #177	@ 0xb1
    1e5a:	32ff      	adds	r2, #255	@ 0xff
    1e5c:	3cff      	subs	r4, #255	@ 0xff
    1e5e:	509c      	str	r4, [r3, r2]
    1e60:	3a04      	subs	r2, #4
    1e62:	3c93      	subs	r4, #147	@ 0x93
    1e64:	509c      	str	r4, [r3, r2]
    1e66:	f7ff ff85 	bl	1d74 <flash_update_begin>
    1e6a:	bd70      	pop	{r4, r5, r6, pc}
    1e6c:	20000ea0 			@ <UNDEFINED> instruction: 20000ea0
    1e70:	20000d0c 			@ <UNDEFINED> instruction: 20000d0c
    1e74:	0000488d 			@ <UNDEFINED> instruction: 0000488d
    1e78:	00001c7d 			@ <UNDEFINED> instruction: 00001c7d

00001e7c <is_allowed_bcd_value>:
    1e7c:	0003      	movs	r3, r0
    1e7e:	2000      	movs	r0, #0
    1e80:	2b99      	cmp	r3, #153	@ 0x99
    1e82:	d804      	bhi.n	1e8e <is_allowed_bcd_value+0x12>
    1e84:	220f      	movs	r2, #15
    1e86:	4013      	ands	r3, r2
    1e88:	3a06      	subs	r2, #6
    1e8a:	429a      	cmp	r2, r3
    1e8c:	4140      	adcs	r0, r0
    1e8e:	4770      	bx	lr

00001e90 <_mtd_erase>:
    1e90:	b510      	push	{r4, lr}
    1e92:	0004      	movs	r4, r0
    1e94:	4804      	ldr	r0, [pc, #16]	@ (1ea8 <_mtd_erase+0x18>)
    1e96:	6883      	ldr	r3, [r0, #8]
    1e98:	1e5a      	subs	r2, r3, #1
    1e9a:	1851      	adds	r1, r2, r1
    1e9c:	425a      	negs	r2, r3
    1e9e:	400a      	ands	r2, r1
    1ea0:	0021      	movs	r1, r4
    1ea2:	f000 feb4 	bl	2c0e <mtd_erase>
    1ea6:	bd10      	pop	{r4, pc}
    1ea8:	20000c88 			@ <UNDEFINED> instruction: 20000c88

00001eac <_mtd_write>:
    1eac:	b51f      	push	{r0, r1, r2, r3, r4, lr}
    1eae:	000b      	movs	r3, r1
    1eb0:	a903      	add	r1, sp, #12
    1eb2:	9100      	str	r1, [sp, #0]
    1eb4:	0001      	movs	r1, r0
    1eb6:	4802      	ldr	r0, [pc, #8]	@ (1ec0 <_mtd_write+0x14>)
    1eb8:	f000 fee6 	bl	2c88 <mtd_write>
    1ebc:	b005      	add	sp, #20
    1ebe:	bd00      	pop	{pc}
    1ec0:	20000c88 			@ <UNDEFINED> instruction: 20000c88

00001ec4 <_mtd_read>:
    1ec4:	b51f      	push	{r0, r1, r2, r3, r4, lr}
    1ec6:	000b      	movs	r3, r1
    1ec8:	a903      	add	r1, sp, #12
    1eca:	9100      	str	r1, [sp, #0]
    1ecc:	0001      	movs	r1, r0
    1ece:	4802      	ldr	r0, [pc, #8]	@ (1ed8 <_mtd_read+0x14>)
    1ed0:	f000 feba 	bl	2c48 <mtd_read>
    1ed4:	b005      	add	sp, #20
    1ed6:	bd00      	pop	{pc}
    1ed8:	20000c88 			@ <UNDEFINED> instruction: 20000c88

00001edc <region_erase_header>:
    1edc:	0003      	movs	r3, r0
    1ede:	b510      	push	{r4, lr}
    1ee0:	b140      	cbz	r0, 1ef4 <region_erase_header+0x18>
    1ee2:	6902      	ldr	r2, [r0, #16]
    1ee4:	0010      	movs	r0, r2
    1ee6:	b12a      	cbz	r2, 1ef4 <region_erase_header+0x18>
    1ee8:	6892      	ldr	r2, [r2, #8]
    1eea:	0010      	movs	r0, r2
    1eec:	b112      	cbz	r2, 1ef4 <region_erase_header+0x18>
    1eee:	219c      	movs	r1, #156	@ 0x9c
    1ef0:	6818      	ldr	r0, [r3, #0]
    1ef2:	4790      	blx	r2
    1ef4:	bd10      	pop	{r4, pc}

00001ef6 <region_write_header>:
    1ef6:	0003      	movs	r3, r0
    1ef8:	b510      	push	{r4, lr}
    1efa:	b168      	cbz	r0, 1f18 <region_write_header+0x22>
    1efc:	6902      	ldr	r2, [r0, #16]
    1efe:	0010      	movs	r0, r2
    1f00:	b152      	cbz	r2, 1f18 <region_write_header+0x22>
    1f02:	6854      	ldr	r4, [r2, #4]
    1f04:	0020      	movs	r0, r4
    1f06:	b13c      	cbz	r4, 1f18 <region_write_header+0x22>
    1f08:	000a      	movs	r2, r1
    1f0a:	3294      	adds	r2, #148	@ 0x94
    1f0c:	6812      	ldr	r2, [r2, #0]
    1f0e:	2a01      	cmp	r2, #1
    1f10:	d803      	bhi.n	1f1a <region_write_header+0x24>
    1f12:	2294      	movs	r2, #148	@ 0x94
    1f14:	6818      	ldr	r0, [r3, #0]
    1f16:	47a0      	blx	r4
    1f18:	bd10      	pop	{r4, pc}
    1f1a:	2000      	movs	r0, #0
    1f1c:	2a02      	cmp	r2, #2
    1f1e:	d1fb      	bne.n	1f18 <region_write_header+0x22>
    1f20:	325e      	adds	r2, #94	@ 0x5e
    1f22:	e7f7      	b.n	1f14 <region_write_header+0x1e>

00001f24 <region_write>:
    1f24:	b570      	push	{r4, r5, r6, lr}
    1f26:	000d      	movs	r5, r1
    1f28:	0004      	movs	r4, r0
    1f2a:	0011      	movs	r1, r2
    1f2c:	001a      	movs	r2, r3
    1f2e:	b140      	cbz	r0, 1f42 <region_write+0x1e>
    1f30:	6903      	ldr	r3, [r0, #16]
    1f32:	0018      	movs	r0, r3
    1f34:	b12b      	cbz	r3, 1f42 <region_write+0x1e>
    1f36:	685e      	ldr	r6, [r3, #4]
    1f38:	0030      	movs	r0, r6
    1f3a:	b116      	cbz	r6, 1f42 <region_write+0x1e>
    1f3c:	6820      	ldr	r0, [r4, #0]
    1f3e:	1828      	adds	r0, r5, r0
    1f40:	47b0      	blx	r6
    1f42:	bd70      	pop	{r4, r5, r6, pc}

00001f44 <region_erase>:
    1f44:	b570      	push	{r4, r5, r6, lr}
    1f46:	0003      	movs	r3, r0
    1f48:	000c      	movs	r4, r1
    1f4a:	0011      	movs	r1, r2
    1f4c:	b140      	cbz	r0, 1f60 <region_erase+0x1c>
    1f4e:	6902      	ldr	r2, [r0, #16]
    1f50:	0010      	movs	r0, r2
    1f52:	b12a      	cbz	r2, 1f60 <region_erase+0x1c>
    1f54:	6895      	ldr	r5, [r2, #8]
    1f56:	0028      	movs	r0, r5
    1f58:	b115      	cbz	r5, 1f60 <region_erase+0x1c>
    1f5a:	6818      	ldr	r0, [r3, #0]
    1f5c:	1820      	adds	r0, r4, r0
    1f5e:	47a8      	blx	r5
    1f60:	bd70      	pop	{r4, r5, r6, pc}

00001f62 <region_read_image>:
    1f62:	b570      	push	{r4, r5, r6, lr}
    1f64:	000d      	movs	r5, r1
    1f66:	0004      	movs	r4, r0
    1f68:	0011      	movs	r1, r2
    1f6a:	001a      	movs	r2, r3
    1f6c:	b140      	cbz	r0, 1f80 <region_read_image+0x1e>
    1f6e:	6903      	ldr	r3, [r0, #16]
    1f70:	0018      	movs	r0, r3
    1f72:	b12b      	cbz	r3, 1f80 <region_read_image+0x1e>
    1f74:	681e      	ldr	r6, [r3, #0]
    1f76:	0030      	movs	r0, r6
    1f78:	b116      	cbz	r6, 1f80 <region_read_image+0x1e>
    1f7a:	6860      	ldr	r0, [r4, #4]
    1f7c:	1828      	adds	r0, r5, r0
    1f7e:	47b0      	blx	r6
    1f80:	bd70      	pop	{r4, r5, r6, pc}

00001f82 <region_erase_image>:
    1f82:	b570      	push	{r4, r5, r6, lr}
    1f84:	0003      	movs	r3, r0
    1f86:	000c      	movs	r4, r1
    1f88:	0011      	movs	r1, r2
    1f8a:	b140      	cbz	r0, 1f9e <region_erase_image+0x1c>
    1f8c:	6902      	ldr	r2, [r0, #16]
    1f8e:	0010      	movs	r0, r2
    1f90:	b12a      	cbz	r2, 1f9e <region_erase_image+0x1c>
    1f92:	6895      	ldr	r5, [r2, #8]
    1f94:	0028      	movs	r0, r5
    1f96:	b115      	cbz	r5, 1f9e <region_erase_image+0x1c>
    1f98:	6858      	ldr	r0, [r3, #4]
    1f9a:	1820      	adds	r0, r4, r0
    1f9c:	47a8      	blx	r5
    1f9e:	bd70      	pop	{r4, r5, r6, pc}

00001fa0 <region_write_image>:
    1fa0:	b570      	push	{r4, r5, r6, lr}
    1fa2:	000d      	movs	r5, r1
    1fa4:	0004      	movs	r4, r0
    1fa6:	0011      	movs	r1, r2
    1fa8:	001a      	movs	r2, r3
    1faa:	b140      	cbz	r0, 1fbe <region_write_image+0x1e>
    1fac:	6903      	ldr	r3, [r0, #16]
    1fae:	0018      	movs	r0, r3
    1fb0:	b12b      	cbz	r3, 1fbe <region_write_image+0x1e>
    1fb2:	685e      	ldr	r6, [r3, #4]
    1fb4:	0030      	movs	r0, r6
    1fb6:	b116      	cbz	r6, 1fbe <region_write_image+0x1e>
    1fb8:	6860      	ldr	r0, [r4, #4]
    1fba:	1828      	adds	r0, r5, r0
    1fbc:	47b0      	blx	r6
    1fbe:	bd70      	pop	{r4, r5, r6, pc}

00001fc0 <crc8>:
    1fc0:	b530      	push	{r4, r5, lr}
    1fc2:	2300      	movs	r3, #0
    1fc4:	f248 0400 	movw	r4, #32768	@ 0x8000
    1fc8:	f248 3580 	movw	r5, #33664	@ 0x8380
    1fcc:	1841      	adds	r1, r0, r1
    1fce:	4288      	cmp	r0, r1
    1fd0:	d102      	bne.n	1fd8 <crc8+0x18>
    1fd2:	0a18      	lsrs	r0, r3, #8
    1fd4:	b2c0      	uxtb	r0, r0
    1fd6:	bd30      	pop	{r4, r5, pc}
    1fd8:	7802      	ldrb	r2, [r0, #0]
    1fda:	0212      	lsls	r2, r2, #8
    1fdc:	4053      	eors	r3, r2
    1fde:	2208      	movs	r2, #8
    1fe0:	4223      	tst	r3, r4
    1fe2:	d000      	beq.n	1fe6 <crc8+0x26>
    1fe4:	406b      	eors	r3, r5
    1fe6:	3a01      	subs	r2, #1
    1fe8:	005b      	lsls	r3, r3, #1
    1fea:	2a00      	cmp	r2, #0
    1fec:	d1f8      	bne.n	1fe0 <crc8+0x20>
    1fee:	3001      	adds	r0, #1
    1ff0:	e7ed      	b.n	1fce <crc8+0xe>
	...

00001ff4 <verify_header_crc>:
    1ff4:	7843      	ldrb	r3, [r0, #1]
    1ff6:	b5f7      	push	{r0, r1, r2, r4, r5, r6, r7, lr}
    1ff8:	7802      	ldrb	r2, [r0, #0]
    1ffa:	021b      	lsls	r3, r3, #8
    1ffc:	4313      	orrs	r3, r2
    1ffe:	7882      	ldrb	r2, [r0, #2]
    2000:	0004      	movs	r4, r0
    2002:	0412      	lsls	r2, r2, #16
    2004:	431a      	orrs	r2, r3
    2006:	78c3      	ldrb	r3, [r0, #3]
    2008:	061b      	lsls	r3, r3, #24
    200a:	4313      	orrs	r3, r2
    200c:	4a47      	ldr	r2, [pc, #284]	@ (212c <verify_header_crc+0x138>)
    200e:	4293      	cmp	r3, r2
    2010:	d10d      	bne.n	202e <verify_header_crc+0x3a>
    2012:	7bc3      	ldrb	r3, [r0, #15]
    2014:	2bf0      	cmp	r3, #240	@ 0xf0
    2016:	d011      	beq.n	203c <verify_header_crc+0x48>
    2018:	2193      	movs	r1, #147	@ 0x93
    201a:	f7ff ffd1 	bl	1fc0 <crc8>
    201e:	0023      	movs	r3, r4
    2020:	3393      	adds	r3, #147	@ 0x93
    2022:	781b      	ldrb	r3, [r3, #0]
    2024:	4283      	cmp	r3, r0
    2026:	d070      	beq.n	210a <verify_header_crc+0x116>
    2028:	2001      	movs	r0, #1
    202a:	4240      	negs	r0, r0
    202c:	e071      	b.n	2112 <verify_header_crc+0x11e>
    202e:	4a40      	ldr	r2, [pc, #256]	@ (2130 <verify_header_crc+0x13c>)
    2030:	4293      	cmp	r3, r2
    2032:	d103      	bne.n	203c <verify_header_crc+0x48>
    2034:	7bc3      	ldrb	r3, [r0, #15]
    2036:	2bf0      	cmp	r3, #240	@ 0xf0
    2038:	d100      	bne.n	203c <verify_header_crc+0x48>
    203a:	e06b      	b.n	2114 <verify_header_crc+0x120>
    203c:	7823      	ldrb	r3, [r4, #0]
    203e:	2b44      	cmp	r3, #68	@ 0x44
    2040:	d1f2      	bne.n	2028 <verify_header_crc+0x34>
    2042:	7860      	ldrb	r0, [r4, #1]
    2044:	f7ff ff1a 	bl	1e7c <is_allowed_bcd_value>
    2048:	2800      	cmp	r0, #0
    204a:	d0ed      	beq.n	2028 <verify_header_crc+0x34>
    204c:	78a0      	ldrb	r0, [r4, #2]
    204e:	f7ff ff15 	bl	1e7c <is_allowed_bcd_value>
    2052:	2800      	cmp	r0, #0
    2054:	d0e8      	beq.n	2028 <verify_header_crc+0x34>
    2056:	78e0      	ldrb	r0, [r4, #3]
    2058:	f7ff ff10 	bl	1e7c <is_allowed_bcd_value>
    205c:	2800      	cmp	r0, #0
    205e:	d0e3      	beq.n	2028 <verify_header_crc+0x34>
    2060:	7927      	ldrb	r7, [r4, #4]
    2062:	0038      	movs	r0, r7
    2064:	f7ff ff0a 	bl	1e7c <is_allowed_bcd_value>
    2068:	2800      	cmp	r0, #0
    206a:	d0dd      	beq.n	2028 <verify_header_crc+0x34>
    206c:	7966      	ldrb	r6, [r4, #5]
    206e:	0030      	movs	r0, r6
    2070:	f7ff ff04 	bl	1e7c <is_allowed_bcd_value>
    2074:	2800      	cmp	r0, #0
    2076:	d0d7      	beq.n	2028 <verify_header_crc+0x34>
    2078:	79a5      	ldrb	r5, [r4, #6]
    207a:	0028      	movs	r0, r5
    207c:	f7ff fefe 	bl	1e7c <is_allowed_bcd_value>
    2080:	2800      	cmp	r0, #0
    2082:	d0d1      	beq.n	2028 <verify_header_crc+0x34>
    2084:	79e3      	ldrb	r3, [r4, #7]
    2086:	0018      	movs	r0, r3
    2088:	9301      	str	r3, [sp, #4]
    208a:	f7ff fef7 	bl	1e7c <is_allowed_bcd_value>
    208e:	2800      	cmp	r0, #0
    2090:	d0ca      	beq.n	2028 <verify_header_crc+0x34>
    2092:	2306      	movs	r3, #6
    2094:	093a      	lsrs	r2, r7, #4
    2096:	425b      	negs	r3, r3
    2098:	435a      	muls	r2, r3
    209a:	18bf      	adds	r7, r7, r2
    209c:	b2ff      	uxtb	r7, r7
    209e:	2f14      	cmp	r7, #20
    20a0:	d9c2      	bls.n	2028 <verify_header_crc+0x34>
    20a2:	2e00      	cmp	r6, #0
    20a4:	d0c0      	beq.n	2028 <verify_header_crc+0x34>
    20a6:	0932      	lsrs	r2, r6, #4
    20a8:	435a      	muls	r2, r3
    20aa:	18b6      	adds	r6, r6, r2
    20ac:	b2f6      	uxtb	r6, r6
    20ae:	2e0c      	cmp	r6, #12
    20b0:	d8ba      	bhi.n	2028 <verify_header_crc+0x34>
    20b2:	2d00      	cmp	r5, #0
    20b4:	d0b8      	beq.n	2028 <verify_header_crc+0x34>
    20b6:	092a      	lsrs	r2, r5, #4
    20b8:	435a      	muls	r2, r3
    20ba:	18ad      	adds	r5, r5, r2
    20bc:	b2ed      	uxtb	r5, r5
    20be:	2d1f      	cmp	r5, #31
    20c0:	d8b2      	bhi.n	2028 <verify_header_crc+0x34>
    20c2:	9a01      	ldr	r2, [sp, #4]
    20c4:	0912      	lsrs	r2, r2, #4
    20c6:	4353      	muls	r3, r2
    20c8:	9a01      	ldr	r2, [sp, #4]
    20ca:	18d3      	adds	r3, r2, r3
    20cc:	b2db      	uxtb	r3, r3
    20ce:	2b17      	cmp	r3, #23
    20d0:	d8aa      	bhi.n	2028 <verify_header_crc+0x34>
    20d2:	7a63      	ldrb	r3, [r4, #9]
    20d4:	7a22      	ldrb	r2, [r4, #8]
    20d6:	021b      	lsls	r3, r3, #8
    20d8:	4313      	orrs	r3, r2
    20da:	7aa2      	ldrb	r2, [r4, #10]
    20dc:	0412      	lsls	r2, r2, #16
    20de:	431a      	orrs	r2, r3
    20e0:	7ae3      	ldrb	r3, [r4, #11]
    20e2:	061b      	lsls	r3, r3, #24
    20e4:	4313      	orrs	r3, r2
    20e6:	4a13      	ldr	r2, [pc, #76]	@ (2134 <verify_header_crc+0x140>)
    20e8:	189b      	adds	r3, r3, r2
    20ea:	22cc      	movs	r2, #204	@ 0xcc
    20ec:	0312      	lsls	r2, r2, #12
    20ee:	4293      	cmp	r3, r2
    20f0:	d89a      	bhi.n	2028 <verify_header_crc+0x34>
    20f2:	0023      	movs	r3, r4
    20f4:	215c      	movs	r1, #92	@ 0x5c
    20f6:	335f      	adds	r3, #95	@ 0x5f
    20f8:	0020      	movs	r0, r4
    20fa:	781d      	ldrb	r5, [r3, #0]
    20fc:	f7ff ff60 	bl	1fc0 <crc8>
    2100:	4285      	cmp	r5, r0
    2102:	d191      	bne.n	2028 <verify_header_crc+0x34>
    2104:	2302      	movs	r3, #2
    2106:	3494      	adds	r4, #148	@ 0x94
    2108:	e001      	b.n	210e <verify_header_crc+0x11a>
    210a:	2300      	movs	r3, #0
    210c:	3494      	adds	r4, #148	@ 0x94
    210e:	2000      	movs	r0, #0
    2110:	6023      	str	r3, [r4, #0]
    2112:	bdfe      	pop	{r1, r2, r3, r4, r5, r6, r7, pc}
    2114:	2193      	movs	r1, #147	@ 0x93
    2116:	f7ff ff53 	bl	1fc0 <crc8>
    211a:	0023      	movs	r3, r4
    211c:	3393      	adds	r3, #147	@ 0x93
    211e:	781b      	ldrb	r3, [r3, #0]
    2120:	4283      	cmp	r3, r0
    2122:	d000      	beq.n	2126 <verify_header_crc+0x132>
    2124:	e780      	b.n	2028 <verify_header_crc+0x34>
    2126:	2301      	movs	r3, #1
    2128:	3494      	adds	r4, #148	@ 0x94
    212a:	e7f0      	b.n	210e <verify_header_crc+0x11a>
    212c:	3937283a 			@ <UNDEFINED> instruction: 3937283a
    2130:	aabbccdd 			@ <UNDEFINED> instruction: aabbccdd
    2134:	ffff8000 			@ <UNDEFINED> instruction: ffff8000

00002138 <region_read_header>:
    2138:	b510      	push	{r4, lr}
    213a:	000c      	movs	r4, r1
    213c:	b118      	cbz	r0, 2146 <region_read_header+0xe>
    213e:	6903      	ldr	r3, [r0, #16]
    2140:	b10b      	cbz	r3, 2146 <region_read_header+0xe>
    2142:	681b      	ldr	r3, [r3, #0]
    2144:	b90b      	cbnz	r3, 214a <region_read_header+0x12>
    2146:	2000      	movs	r0, #0
    2148:	bd10      	pop	{r4, pc}
    214a:	229c      	movs	r2, #156	@ 0x9c
    214c:	6800      	ldr	r0, [r0, #0]
    214e:	4798      	blx	r3
    2150:	b938      	cbnz	r0, 2162 <region_read_header+0x2a>
    2152:	0020      	movs	r0, r4
    2154:	f7ff ff4e 	bl	1ff4 <verify_header_crc>
    2158:	2800      	cmp	r0, #0
    215a:	d0f4      	beq.n	2146 <region_read_header+0xe>
    215c:	2002      	movs	r0, #2
    215e:	4240      	negs	r0, r0
    2160:	e7f2      	b.n	2148 <region_read_header+0x10>
    2162:	2001      	movs	r0, #1
    2164:	e7fb      	b.n	215e <region_read_header+0x26>

00002166 <region_copy>:
    2166:	b5f0      	push	{r4, r5, r6, r7, lr}
    2168:	b0eb      	sub	sp, #428	@ 0x1ac
    216a:	ad03      	add	r5, sp, #12
    216c:	000c      	movs	r4, r1
    216e:	0029      	movs	r1, r5
    2170:	9000      	str	r0, [sp, #0]
    2172:	f7ff ffe1 	bl	2138 <region_read_header>
    2176:	0007      	movs	r7, r0
    2178:	2800      	cmp	r0, #0
    217a:	d142      	bne.n	2202 <region_copy+0x9c>
    217c:	9b28      	ldr	r3, [sp, #160]	@ 0xa0
    217e:	2b01      	cmp	r3, #1
    2180:	d829      	bhi.n	21d6 <region_copy+0x70>
    2182:	7cab      	ldrb	r3, [r5, #18]
    2184:	7c6a      	ldrb	r2, [r5, #17]
    2186:	7c2e      	ldrb	r6, [r5, #16]
    2188:	041b      	lsls	r3, r3, #16
    218a:	0212      	lsls	r2, r2, #8
    218c:	4313      	orrs	r3, r2
    218e:	431e      	orrs	r6, r3
    2190:	0020      	movs	r0, r4
    2192:	f7ff fea3 	bl	1edc <region_erase_header>
    2196:	0032      	movs	r2, r6
    2198:	2100      	movs	r1, #0
    219a:	0020      	movs	r0, r4
    219c:	f7ff fef1 	bl	1f82 <region_erase_image>
    21a0:	0035      	movs	r5, r6
    21a2:	1b73      	subs	r3, r6, r5
    21a4:	9301      	str	r3, [sp, #4]
    21a6:	f240 1300 	movw	r3, #256	@ 0x100
    21aa:	429d      	cmp	r5, r3
    21ac:	d818      	bhi.n	21e0 <region_copy+0x7a>
    21ae:	b15d      	cbz	r5, 21c8 <region_copy+0x62>
    21b0:	002b      	movs	r3, r5
    21b2:	9901      	ldr	r1, [sp, #4]
    21b4:	aa2a      	add	r2, sp, #168	@ 0xa8
    21b6:	9800      	ldr	r0, [sp, #0]
    21b8:	f7ff fed3 	bl	1f62 <region_read_image>
    21bc:	002b      	movs	r3, r5
    21be:	0020      	movs	r0, r4
    21c0:	9901      	ldr	r1, [sp, #4]
    21c2:	aa2a      	add	r2, sp, #168	@ 0xa8
    21c4:	f7ff feec 	bl	1fa0 <region_write_image>
    21c8:	0020      	movs	r0, r4
    21ca:	a903      	add	r1, sp, #12
    21cc:	f7ff fe93 	bl	1ef6 <region_write_header>
    21d0:	0038      	movs	r0, r7
    21d2:	b06b      	add	sp, #428	@ 0x1ac
    21d4:	bdf0      	pop	{r4, r5, r6, r7, pc}
    21d6:	0006      	movs	r6, r0
    21d8:	2b02      	cmp	r3, #2
    21da:	d1d9      	bne.n	2190 <region_copy+0x2a>
    21dc:	68ae      	ldr	r6, [r5, #8]
    21de:	e7d7      	b.n	2190 <region_copy+0x2a>
    21e0:	1b71      	subs	r1, r6, r5
    21e2:	f240 1300 	movw	r3, #256	@ 0x100
    21e6:	aa2a      	add	r2, sp, #168	@ 0xa8
    21e8:	9800      	ldr	r0, [sp, #0]
    21ea:	f7ff feba 	bl	1f62 <region_read_image>
    21ee:	1b71      	subs	r1, r6, r5
    21f0:	f240 1300 	movw	r3, #256	@ 0x100
    21f4:	0020      	movs	r0, r4
    21f6:	aa2a      	add	r2, sp, #168	@ 0xa8
    21f8:	3d01      	subs	r5, #1
    21fa:	f7ff fed1 	bl	1fa0 <region_write_image>
    21fe:	3dff      	subs	r5, #255	@ 0xff
    2200:	e7cf      	b.n	21a2 <region_copy+0x3c>
    2202:	2701      	movs	r7, #1
    2204:	427f      	negs	r7, r7
    2206:	e7e3      	b.n	21d0 <region_copy+0x6a>

00002208 <region_remove>:
    2208:	b510      	push	{r4, lr}
    220a:	4b09      	ldr	r3, [pc, #36]	@ (2230 <region_remove+0x28>)
    220c:	2801      	cmp	r0, #1
    220e:	d108      	bne.n	2222 <region_remove+0x1a>
    2210:	b929      	cbnz	r1, 221e <region_remove+0x16>
    2212:	6818      	ldr	r0, [r3, #0]
    2214:	3028      	adds	r0, #40	@ 0x28
    2216:	f7ff fe61 	bl	1edc <region_erase_header>
    221a:	2000      	movs	r0, #0
    221c:	bd10      	pop	{r4, pc}
    221e:	6858      	ldr	r0, [r3, #4]
    2220:	e7f8      	b.n	2214 <region_remove+0xc>
    2222:	b911      	cbnz	r1, 222a <region_remove+0x22>
    2224:	6818      	ldr	r0, [r3, #0]
    2226:	303c      	adds	r0, #60	@ 0x3c
    2228:	e7f5      	b.n	2216 <region_remove+0xe>
    222a:	6858      	ldr	r0, [r3, #4]
    222c:	e7fb      	b.n	2226 <region_remove+0x1e>
    222e:	46c0      	nop			@ (mov r8, r8)
    2230:	20000d0c 			@ <UNDEFINED> instruction: 20000d0c

00002234 <region_copy_direct>:
    2234:	b510      	push	{r4, lr}
    2236:	2801      	cmp	r0, #1
    2238:	d110      	bne.n	225c <region_copy_direct+0x28>
    223a:	b941      	cbnz	r1, 224e <region_copy_direct+0x1a>
    223c:	4b10      	ldr	r3, [pc, #64]	@ (2280 <region_copy_direct+0x4c>)
    223e:	6818      	ldr	r0, [r3, #0]
    2240:	6859      	ldr	r1, [r3, #4]
    2242:	3028      	adds	r0, #40	@ 0x28
    2244:	3128      	adds	r1, #40	@ 0x28
    2246:	f7ff ff8e 	bl	2166 <region_copy>
    224a:	2000      	movs	r0, #0
    224c:	bd10      	pop	{r4, pc}
    224e:	2901      	cmp	r1, #1
    2250:	d112      	bne.n	2278 <region_copy_direct+0x44>
    2252:	4b0b      	ldr	r3, [pc, #44]	@ (2280 <region_copy_direct+0x4c>)
    2254:	6858      	ldr	r0, [r3, #4]
    2256:	6819      	ldr	r1, [r3, #0]
    2258:	3028      	adds	r0, #40	@ 0x28
    225a:	e7f3      	b.n	2244 <region_copy_direct+0x10>
    225c:	b929      	cbnz	r1, 226a <region_copy_direct+0x36>
    225e:	4b08      	ldr	r3, [pc, #32]	@ (2280 <region_copy_direct+0x4c>)
    2260:	6818      	ldr	r0, [r3, #0]
    2262:	6859      	ldr	r1, [r3, #4]
    2264:	303c      	adds	r0, #60	@ 0x3c
    2266:	313c      	adds	r1, #60	@ 0x3c
    2268:	e7ed      	b.n	2246 <region_copy_direct+0x12>
    226a:	2901      	cmp	r1, #1
    226c:	d104      	bne.n	2278 <region_copy_direct+0x44>
    226e:	4b04      	ldr	r3, [pc, #16]	@ (2280 <region_copy_direct+0x4c>)
    2270:	6858      	ldr	r0, [r3, #4]
    2272:	6819      	ldr	r1, [r3, #0]
    2274:	303c      	adds	r0, #60	@ 0x3c
    2276:	e7f6      	b.n	2266 <region_copy_direct+0x32>
    2278:	2001      	movs	r0, #1
    227a:	4240      	negs	r0, r0
    227c:	e7e6      	b.n	224c <region_copy_direct+0x18>
    227e:	46c0      	nop			@ (mov r8, r8)
    2280:	20000d0c 			@ <UNDEFINED> instruction: 20000d0c

00002284 <region_get_status>:
    2284:	b5f0      	push	{r4, r5, r6, r7, lr}
    2286:	4d1e      	ldr	r5, [pc, #120]	@ (2300 <region_get_status+0x7c>)
    2288:	0003      	movs	r3, r0
    228a:	686f      	ldr	r7, [r5, #4]
    228c:	6828      	ldr	r0, [r5, #0]
    228e:	b0cf      	sub	sp, #316	@ 0x13c
    2290:	2b01      	cmp	r3, #1
    2292:	d112      	bne.n	22ba <region_get_status+0x36>
    2294:	3028      	adds	r0, #40	@ 0x28
    2296:	3728      	adds	r7, #40	@ 0x28
    2298:	4669      	mov	r1, sp
    229a:	f7ff ff4d 	bl	2138 <region_read_header>
    229e:	686b      	ldr	r3, [r5, #4]
    22a0:	0004      	movs	r4, r0
    22a2:	b33b      	cbz	r3, 22f4 <region_get_status+0x70>
    22a4:	ad27      	add	r5, sp, #156	@ 0x9c
    22a6:	0029      	movs	r1, r5
    22a8:	0038      	movs	r0, r7
    22aa:	f7ff ff45 	bl	2138 <region_read_header>
    22ae:	b13c      	cbz	r4, 22c0 <region_get_status+0x3c>
    22b0:	4243      	negs	r3, r0
    22b2:	4158      	adcs	r0, r3
    22b4:	0040      	lsls	r0, r0, #1
    22b6:	b04f      	add	sp, #316	@ 0x13c
    22b8:	bdf0      	pop	{r4, r5, r6, r7, pc}
    22ba:	303c      	adds	r0, #60	@ 0x3c
    22bc:	373c      	adds	r7, #60	@ 0x3c
    22be:	e7eb      	b.n	2298 <region_get_status+0x14>
    22c0:	b108      	cbz	r0, 22c6 <region_get_status+0x42>
    22c2:	2001      	movs	r0, #1
    22c4:	e7f7      	b.n	22b6 <region_get_status+0x32>
    22c6:	9b25      	ldr	r3, [sp, #148]	@ 0x94
    22c8:	2b01      	cmp	r3, #1
    22ca:	d80c      	bhi.n	22e6 <region_get_status+0x62>
    22cc:	9b01      	ldr	r3, [sp, #4]
    22ce:	686a      	ldr	r2, [r5, #4]
    22d0:	4293      	cmp	r3, r2
    22d2:	d105      	bne.n	22e0 <region_get_status+0x5c>
    22d4:	9a02      	ldr	r2, [sp, #8]
    22d6:	68ab      	ldr	r3, [r5, #8]
    22d8:	429a      	cmp	r2, r3
    22da:	d107      	bne.n	22ec <region_get_status+0x68>
    22dc:	2001      	movs	r0, #1
    22de:	e002      	b.n	22e6 <region_get_status+0x62>
    22e0:	429a      	cmp	r2, r3
    22e2:	4140      	adcs	r0, r0
    22e4:	3002      	adds	r0, #2
    22e6:	4b07      	ldr	r3, [pc, #28]	@ (2304 <region_get_status+0x80>)
    22e8:	5618      	ldrsb	r0, [r3, r0]
    22ea:	e7e4      	b.n	22b6 <region_get_status+0x32>
    22ec:	2004      	movs	r0, #4
    22ee:	429a      	cmp	r2, r3
    22f0:	d9e1      	bls.n	22b6 <region_get_status+0x32>
    22f2:	e7f8      	b.n	22e6 <region_get_status+0x62>
    22f4:	2800      	cmp	r0, #0
    22f6:	d0e4      	beq.n	22c2 <region_get_status+0x3e>
    22f8:	2001      	movs	r0, #1
    22fa:	4240      	negs	r0, r0
    22fc:	e7d8      	b.n	22b0 <region_get_status+0x2c>
    22fe:	46c0      	nop			@ (mov r8, r8)
    2300:	20000d0c 			@ <UNDEFINED> instruction: 20000d0c
    2304:	000059cc 			@ <UNDEFINED> instruction: 000059cc

00002308 <region_duplicate_bootloader>:
    2308:	b5f7      	push	{r0, r1, r2, r4, r5, r6, r7, lr}
    230a:	491f      	ldr	r1, [pc, #124]	@ (2388 <region_duplicate_bootloader+0x80>)
    230c:	0006      	movs	r6, r0
    230e:	684a      	ldr	r2, [r1, #4]
    2310:	0013      	movs	r3, r2
    2312:	b3ba      	cbz	r2, 2384 <region_duplicate_bootloader+0x7c>
    2314:	2300      	movs	r3, #0
    2316:	2801      	cmp	r0, #1
    2318:	d134      	bne.n	2384 <region_duplicate_bootloader+0x7c>
    231a:	680b      	ldr	r3, [r1, #0]
    231c:	6854      	ldr	r4, [r2, #4]
    231e:	68dd      	ldr	r5, [r3, #12]
    2320:	685b      	ldr	r3, [r3, #4]
    2322:	002a      	movs	r2, r5
    2324:	0018      	movs	r0, r3
    2326:	0021      	movs	r1, r4
    2328:	9301      	str	r3, [sp, #4]
    232a:	f002 fd77 	bl	4e1c <memcmp>
    232e:	0033      	movs	r3, r6
    2330:	b340      	cbz	r0, 2384 <region_duplicate_bootloader+0x7c>
    2332:	f7fe f993 	bl	65c <__PC>
    2336:	2680      	movs	r6, #128	@ 0x80
    2338:	0003      	movs	r3, r0
    233a:	0576      	lsls	r6, r6, #21
    233c:	4033      	ands	r3, r6
    233e:	425a      	negs	r2, r3
    2340:	4153      	adcs	r3, r2
    2342:	2708      	movs	r7, #8
    2344:	425b      	negs	r3, r3
    2346:	4a11      	ldr	r2, [pc, #68]	@ (238c <region_duplicate_bootloader+0x84>)
    2348:	0f1b      	lsrs	r3, r3, #28
    234a:	071b      	lsls	r3, r3, #28
    234c:	189b      	adds	r3, r3, r2
    234e:	681a      	ldr	r2, [r3, #0]
    2350:	0029      	movs	r1, r5
    2352:	433a      	orrs	r2, r7
    2354:	601a      	str	r2, [r3, #0]
    2356:	0020      	movs	r0, r4
    2358:	f7fe ff16 	bl	1188 <flash_erase>
    235c:	002a      	movs	r2, r5
    235e:	9901      	ldr	r1, [sp, #4]
    2360:	0020      	movs	r0, r4
    2362:	f7fe fff1 	bl	1348 <flash_write>
    2366:	f7fe f979 	bl	65c <__PC>
    236a:	0003      	movs	r3, r0
    236c:	4033      	ands	r3, r6
    236e:	425a      	negs	r2, r3
    2370:	4153      	adcs	r3, r2
    2372:	425b      	negs	r3, r3
    2374:	4a05      	ldr	r2, [pc, #20]	@ (238c <region_duplicate_bootloader+0x84>)
    2376:	0f1b      	lsrs	r3, r3, #28
    2378:	071b      	lsls	r3, r3, #28
    237a:	189b      	adds	r3, r3, r2
    237c:	681a      	ldr	r2, [r3, #0]
    237e:	43ba      	bics	r2, r7
    2380:	601a      	str	r2, [r3, #0]
    2382:	2302      	movs	r3, #2
    2384:	0018      	movs	r0, r3
    2386:	bdfe      	pop	{r1, r2, r3, r4, r5, r6, r7, pc}
    2388:	20000d0c 			@ <UNDEFINED> instruction: 20000d0c
    238c:	5000c000 			@ <UNDEFINED> instruction: 5000c000

00002390 <region_display_config>:
    2390:	b537      	push	{r0, r1, r2, r4, r5, lr}
    2392:	4c27      	ldr	r4, [pc, #156]	@ (2430 <region_display_config+0xa0>)
    2394:	6822      	ldr	r2, [r4, #0]
    2396:	2a00      	cmp	r2, #0
    2398:	d03f      	beq.n	241a <region_display_config+0x8a>
    239a:	4b26      	ldr	r3, [pc, #152]	@ (2434 <region_display_config+0xa4>)
    239c:	6b91      	ldr	r1, [r2, #56]	@ 0x38
    239e:	4299      	cmp	r1, r3
    23a0:	d139      	bne.n	2416 <region_display_config+0x86>
    23a2:	4d25      	ldr	r5, [pc, #148]	@ (2438 <region_display_config+0xa8>)
    23a4:	68d3      	ldr	r3, [r2, #12]
    23a6:	0029      	movs	r1, r5
    23a8:	6852      	ldr	r2, [r2, #4]
    23aa:	4824      	ldr	r0, [pc, #144]	@ (243c <region_display_config+0xac>)
    23ac:	f000 fba6 	bl	2afc <printf_>
    23b0:	6822      	ldr	r2, [r4, #0]
    23b2:	0029      	movs	r1, r5
    23b4:	6b53      	ldr	r3, [r2, #52]	@ 0x34
    23b6:	4822      	ldr	r0, [pc, #136]	@ (2440 <region_display_config+0xb0>)
    23b8:	9300      	str	r3, [sp, #0]
    23ba:	6ad3      	ldr	r3, [r2, #44]	@ 0x2c
    23bc:	6a92      	ldr	r2, [r2, #40]	@ 0x28
    23be:	f000 fb9d 	bl	2afc <printf_>
    23c2:	6822      	ldr	r2, [r4, #0]
    23c4:	0029      	movs	r1, r5
    23c6:	6c93      	ldr	r3, [r2, #72]	@ 0x48
    23c8:	481e      	ldr	r0, [pc, #120]	@ (2444 <region_display_config+0xb4>)
    23ca:	9300      	str	r3, [sp, #0]
    23cc:	6c13      	ldr	r3, [r2, #64]	@ 0x40
    23ce:	6bd2      	ldr	r2, [r2, #60]	@ 0x3c
    23d0:	f000 fb94 	bl	2afc <printf_>
    23d4:	6862      	ldr	r2, [r4, #4]
    23d6:	b332      	cbz	r2, 2426 <region_display_config+0x96>
    23d8:	4b16      	ldr	r3, [pc, #88]	@ (2434 <region_display_config+0xa4>)
    23da:	6b91      	ldr	r1, [r2, #56]	@ 0x38
    23dc:	4299      	cmp	r1, r3
    23de:	d120      	bne.n	2422 <region_display_config+0x92>
    23e0:	4d15      	ldr	r5, [pc, #84]	@ (2438 <region_display_config+0xa8>)
    23e2:	68d3      	ldr	r3, [r2, #12]
    23e4:	0029      	movs	r1, r5
    23e6:	6852      	ldr	r2, [r2, #4]
    23e8:	4817      	ldr	r0, [pc, #92]	@ (2448 <region_display_config+0xb8>)
    23ea:	f000 fb87 	bl	2afc <printf_>
    23ee:	6862      	ldr	r2, [r4, #4]
    23f0:	0029      	movs	r1, r5
    23f2:	6b53      	ldr	r3, [r2, #52]	@ 0x34
    23f4:	4815      	ldr	r0, [pc, #84]	@ (244c <region_display_config+0xbc>)
    23f6:	9300      	str	r3, [sp, #0]
    23f8:	6ad3      	ldr	r3, [r2, #44]	@ 0x2c
    23fa:	6a92      	ldr	r2, [r2, #40]	@ 0x28
    23fc:	f000 fb7e 	bl	2afc <printf_>
    2400:	6862      	ldr	r2, [r4, #4]
    2402:	0029      	movs	r1, r5
    2404:	6c93      	ldr	r3, [r2, #72]	@ 0x48
    2406:	4812      	ldr	r0, [pc, #72]	@ (2450 <region_display_config+0xc0>)
    2408:	9300      	str	r3, [sp, #0]
    240a:	6c13      	ldr	r3, [r2, #64]	@ 0x40
    240c:	6bd2      	ldr	r2, [r2, #60]	@ 0x3c
    240e:	f000 fb75 	bl	2afc <printf_>
    2412:	2000      	movs	r0, #0
    2414:	bd3e      	pop	{r1, r2, r3, r4, r5, pc}
    2416:	4d0f      	ldr	r5, [pc, #60]	@ (2454 <region_display_config+0xc4>)
    2418:	e7c4      	b.n	23a4 <region_display_config+0x14>
    241a:	480f      	ldr	r0, [pc, #60]	@ (2458 <region_display_config+0xc8>)
    241c:	f000 fb6e 	bl	2afc <printf_>
    2420:	e7d8      	b.n	23d4 <region_display_config+0x44>
    2422:	4d0c      	ldr	r5, [pc, #48]	@ (2454 <region_display_config+0xc4>)
    2424:	e7dd      	b.n	23e2 <region_display_config+0x52>
    2426:	480d      	ldr	r0, [pc, #52]	@ (245c <region_display_config+0xcc>)
    2428:	f000 fb68 	bl	2afc <printf_>
    242c:	e7f1      	b.n	2412 <region_display_config+0x82>
    242e:	46c0      	nop			@ (mov r8, r8)
    2430:	20000d0c 			@ <UNDEFINED> instruction: 20000d0c
    2434:	20000c60 			@ <UNDEFINED> instruction: 20000c60
    2438:	000050b9 			@ <UNDEFINED> instruction: 000050b9
    243c:	000050cb 			@ <UNDEFINED> instruction: 000050cb
    2440:	000050fb 	strdeq	r5, [r0], -fp
    2444:	00005139 			@ <UNDEFINED> instruction: 00005139
    2448:	00005185 			@ <UNDEFINED> instruction: 00005185
    244c:	000051b5 			@ <UNDEFINED> instruction: 000051b5
    2450:	000051f3 	strdeq	r5, [r0], -r3
    2454:	000050c2 			@ <UNDEFINED> instruction: 000050c2
    2458:	00005177 			@ <UNDEFINED> instruction: 00005177
    245c:	00005231 			@ <UNDEFINED> instruction: 00005231

00002460 <region_check>:
    2460:	2301      	movs	r3, #1
    2462:	b510      	push	{r4, lr}
    2464:	4298      	cmp	r0, r3
    2466:	d110      	bne.n	248a <region_check+0x2a>
    2468:	4a0b      	ldr	r2, [pc, #44]	@ (2498 <region_check+0x38>)
    246a:	6811      	ldr	r1, [r2, #0]
    246c:	b159      	cbz	r1, 2486 <region_check+0x26>
    246e:	6852      	ldr	r2, [r2, #4]
    2470:	b16a      	cbz	r2, 248e <region_check+0x2e>
    2472:	684c      	ldr	r4, [r1, #4]
    2474:	6850      	ldr	r0, [r2, #4]
    2476:	4284      	cmp	r4, r0
    2478:	d00b      	beq.n	2492 <region_check+0x32>
    247a:	68c9      	ldr	r1, [r1, #12]
    247c:	68d2      	ldr	r2, [r2, #12]
    247e:	4291      	cmp	r1, r2
    2480:	d003      	beq.n	248a <region_check+0x2a>
    2482:	2303      	movs	r3, #3
    2484:	e000      	b.n	2488 <region_check+0x28>
    2486:	2301      	movs	r3, #1
    2488:	425b      	negs	r3, r3
    248a:	0018      	movs	r0, r3
    248c:	bd10      	pop	{r4, pc}
    248e:	2304      	movs	r3, #4
    2490:	e7fa      	b.n	2488 <region_check+0x28>
    2492:	2302      	movs	r3, #2
    2494:	e7f8      	b.n	2488 <region_check+0x28>
    2496:	46c0      	nop			@ (mov r8, r8)
    2498:	20000d0c 			@ <UNDEFINED> instruction: 20000d0c

0000249c <region_get_entry>:
    249c:	4b03      	ldr	r3, [pc, #12]	@ (24ac <region_get_entry+0x10>)
    249e:	681b      	ldr	r3, [r3, #0]
    24a0:	6ad8      	ldr	r0, [r3, #44]	@ 0x2c
    24a2:	f241 0300 	movw	r3, #4096	@ 0x1000
    24a6:	18c0      	adds	r0, r0, r3
    24a8:	4770      	bx	lr
    24aa:	46c0      	nop			@ (mov r8, r8)
    24ac:	20000d0c 			@ <UNDEFINED> instruction: 20000d0c

000024b0 <abm_config_load>:
    24b0:	b510      	push	{r4, lr}
    24b2:	b094      	sub	sp, #80	@ 0x50
    24b4:	2250      	movs	r2, #80	@ 0x50
    24b6:	2100      	movs	r1, #0
    24b8:	0004      	movs	r4, r0
    24ba:	4668      	mov	r0, sp
    24bc:	f7fd ff66 	bl	38c <memset>
    24c0:	4b0e      	ldr	r3, [pc, #56]	@ (24fc <abm_config_load+0x4c>)
    24c2:	466a      	mov	r2, sp
    24c4:	6818      	ldr	r0, [r3, #0]
    24c6:	2100      	movs	r1, #0
    24c8:	2350      	movs	r3, #80	@ 0x50
    24ca:	3014      	adds	r0, #20
    24cc:	f7ff fd49 	bl	1f62 <region_read_image>
    24d0:	4b0b      	ldr	r3, [pc, #44]	@ (2500 <abm_config_load+0x50>)
    24d2:	9a00      	ldr	r2, [sp, #0]
    24d4:	429a      	cmp	r2, r3
    24d6:	d009      	beq.n	24ec <abm_config_load+0x3c>
    24d8:	2302      	movs	r3, #2
    24da:	8023      	strh	r3, [r4, #0]
    24dc:	3330      	adds	r3, #48	@ 0x30
    24de:	6063      	str	r3, [r4, #4]
    24e0:	2300      	movs	r3, #0
    24e2:	2001      	movs	r0, #1
    24e4:	8123      	strh	r3, [r4, #8]
    24e6:	72a3      	strb	r3, [r4, #10]
    24e8:	b014      	add	sp, #80	@ 0x50
    24ea:	bd10      	pop	{r4, pc}
    24ec:	220c      	movs	r2, #12
    24ee:	0020      	movs	r0, r4
    24f0:	a911      	add	r1, sp, #68	@ 0x44
    24f2:	f002 fca1 	bl	4e38 <memcpy>
    24f6:	2000      	movs	r0, #0
    24f8:	e7f6      	b.n	24e8 <abm_config_load+0x38>
    24fa:	46c0      	nop			@ (mov r8, r8)
    24fc:	20000d0c 			@ <UNDEFINED> instruction: 20000d0c
    2500:	41424d43 			@ <UNDEFINED> instruction: 41424d43

00002504 <uart_stdout_init>:
    2504:	2101      	movs	r1, #1
    2506:	b510      	push	{r4, lr}
    2508:	4b02      	ldr	r3, [pc, #8]	@ (2514 <uart_stdout_init+0x10>)
    250a:	4249      	negs	r1, r1
    250c:	6818      	ldr	r0, [r3, #0]
    250e:	f7fe fab9 	bl	a84 <uart_init>
    2512:	bd10      	pop	{r4, pc}
    2514:	00005ad4 	ldrdeq	r5, [r0], -r4

00002518 <_putchar>:
    2518:	b507      	push	{r0, r1, r2, lr}
    251a:	466b      	mov	r3, sp
    251c:	1dd9      	adds	r1, r3, #7
    251e:	7008      	strb	r0, [r1, #0]
    2520:	2201      	movs	r2, #1
    2522:	2000      	movs	r0, #0
    2524:	f7fe fb00 	bl	b28 <uart_write>
    2528:	bd07      	pop	{r0, r1, r2, pc}

0000252a <_out_buffer>:
    252a:	429a      	cmp	r2, r3
    252c:	d200      	bcs.n	2530 <_out_buffer+0x6>
    252e:	5488      	strb	r0, [r1, r2]
    2530:	4770      	bx	lr

00002532 <_out_null>:
    2532:	4770      	bx	lr

00002534 <_ntoa_long>:
    2534:	b5f0      	push	{r4, r5, r6, r7, lr}
    2536:	b091      	sub	sp, #68	@ 0x44
    2538:	9304      	str	r3, [sp, #16]
    253a:	ab16      	add	r3, sp, #88	@ 0x58
    253c:	cb10      	ldmia	r3!, {r4}
    253e:	9e18      	ldr	r6, [sp, #96]	@ 0x60
    2540:	781b      	ldrb	r3, [r3, #0]
    2542:	9f1a      	ldr	r7, [sp, #104]	@ 0x68
    2544:	9305      	str	r3, [sp, #20]
    2546:	9002      	str	r0, [sp, #8]
    2548:	9b1b      	ldr	r3, [sp, #108]	@ 0x6c
    254a:	9103      	str	r1, [sp, #12]
    254c:	9201      	str	r2, [sp, #4]
    254e:	b90c      	cbnz	r4, 2554 <_ntoa_long+0x20>
    2550:	2210      	movs	r2, #16
    2552:	4393      	bics	r3, r2
    2554:	f240 4200 	movw	r2, #1024	@ 0x400
    2558:	0019      	movs	r1, r3
    255a:	4011      	ands	r1, r2
    255c:	9106      	str	r1, [sp, #24]
    255e:	4213      	tst	r3, r2
    2560:	d000      	beq.n	2564 <_ntoa_long+0x30>
    2562:	b1e4      	cbz	r4, 259e <_ntoa_long+0x6a>
    2564:	2161      	movs	r1, #97	@ 0x61
    2566:	069a      	lsls	r2, r3, #26
    2568:	d500      	bpl.n	256c <_ntoa_long+0x38>
    256a:	2141      	movs	r1, #65	@ 0x41
    256c:	0022      	movs	r2, r4
    256e:	2500      	movs	r5, #0
    2570:	b2c9      	uxtb	r1, r1
    2572:	390a      	subs	r1, #10
    2574:	9107      	str	r1, [sp, #28]
    2576:	fbb2 fcf6 	udiv	ip, r2, r6
    257a:	4664      	mov	r4, ip
    257c:	4374      	muls	r4, r6
    257e:	9907      	ldr	r1, [sp, #28]
    2580:	1b14      	subs	r4, r2, r4
    2582:	b2e0      	uxtb	r0, r4
    2584:	1841      	adds	r1, r0, r1
    2586:	b2c9      	uxtb	r1, r1
    2588:	2c09      	cmp	r4, #9
    258a:	d801      	bhi.n	2590 <_ntoa_long+0x5c>
    258c:	3030      	adds	r0, #48	@ 0x30
    258e:	b2c1      	uxtb	r1, r0
    2590:	a808      	add	r0, sp, #32
    2592:	1c6c      	adds	r4, r5, #1
    2594:	5429      	strb	r1, [r5, r0]
    2596:	42b2      	cmp	r2, r6
    2598:	d301      	bcc.n	259e <_ntoa_long+0x6a>
    259a:	2c20      	cmp	r4, #32
    259c:	d111      	bne.n	25c2 <_ntoa_long+0x8e>
    259e:	2202      	movs	r2, #2
    25a0:	0019      	movs	r1, r3
    25a2:	4011      	ands	r1, r2
    25a4:	9107      	str	r1, [sp, #28]
    25a6:	4213      	tst	r3, r2
    25a8:	d11c      	bne.n	25e4 <_ntoa_long+0xb0>
    25aa:	3a01      	subs	r2, #1
    25ac:	401a      	ands	r2, r3
    25ae:	b137      	cbz	r7, 25be <_ntoa_long+0x8a>
    25b0:	b12a      	cbz	r2, 25be <_ntoa_long+0x8a>
    25b2:	9905      	ldr	r1, [sp, #20]
    25b4:	b911      	cbnz	r1, 25bc <_ntoa_long+0x88>
    25b6:	310c      	adds	r1, #12
    25b8:	420b      	tst	r3, r1
    25ba:	d000      	beq.n	25be <_ntoa_long+0x8a>
    25bc:	3f01      	subs	r7, #1
    25be:	2130      	movs	r1, #48	@ 0x30
    25c0:	e007      	b.n	25d2 <_ntoa_long+0x9e>
    25c2:	0025      	movs	r5, r4
    25c4:	4662      	mov	r2, ip
    25c6:	e7d6      	b.n	2576 <_ntoa_long+0x42>
    25c8:	2c20      	cmp	r4, #32
    25ca:	d005      	beq.n	25d8 <_ntoa_long+0xa4>
    25cc:	a808      	add	r0, sp, #32
    25ce:	5421      	strb	r1, [r4, r0]
    25d0:	3401      	adds	r4, #1
    25d2:	9819      	ldr	r0, [sp, #100]	@ 0x64
    25d4:	42a0      	cmp	r0, r4
    25d6:	d8f7      	bhi.n	25c8 <_ntoa_long+0x94>
    25d8:	b122      	cbz	r2, 25e4 <_ntoa_long+0xb0>
    25da:	2230      	movs	r2, #48	@ 0x30
    25dc:	42a7      	cmp	r7, r4
    25de:	d901      	bls.n	25e4 <_ntoa_long+0xb0>
    25e0:	2c20      	cmp	r4, #32
    25e2:	d113      	bne.n	260c <_ntoa_long+0xd8>
    25e4:	06da      	lsls	r2, r3, #27
    25e6:	d53e      	bpl.n	2666 <_ntoa_long+0x132>
    25e8:	9a06      	ldr	r2, [sp, #24]
    25ea:	b9a2      	cbnz	r2, 2616 <_ntoa_long+0xe2>
    25ec:	b19c      	cbz	r4, 2616 <_ntoa_long+0xe2>
    25ee:	9a19      	ldr	r2, [sp, #100]	@ 0x64
    25f0:	42a2      	cmp	r2, r4
    25f2:	d001      	beq.n	25f8 <_ntoa_long+0xc4>
    25f4:	42bc      	cmp	r4, r7
    25f6:	d10e      	bne.n	2616 <_ntoa_long+0xe2>
    25f8:	1e62      	subs	r2, r4, #1
    25fa:	2c01      	cmp	r4, #1
    25fc:	d00a      	beq.n	2614 <_ntoa_long+0xe0>
    25fe:	3c02      	subs	r4, #2
    2600:	2e10      	cmp	r6, #16
    2602:	d00a      	beq.n	261a <_ntoa_long+0xe6>
    2604:	0014      	movs	r4, r2
    2606:	2e02      	cmp	r6, #2
    2608:	d129      	bne.n	265e <_ntoa_long+0x12a>
    260a:	e039      	b.n	2680 <_ntoa_long+0x14c>
    260c:	a908      	add	r1, sp, #32
    260e:	5462      	strb	r2, [r4, r1]
    2610:	3401      	adds	r4, #1
    2612:	e7e3      	b.n	25dc <_ntoa_long+0xa8>
    2614:	0014      	movs	r4, r2
    2616:	2e10      	cmp	r6, #16
    2618:	d12e      	bne.n	2678 <_ntoa_long+0x144>
    261a:	069a      	lsls	r2, r3, #26
    261c:	d417      	bmi.n	264e <_ntoa_long+0x11a>
    261e:	2278      	movs	r2, #120	@ 0x78
    2620:	2c20      	cmp	r4, #32
    2622:	d117      	bne.n	2654 <_ntoa_long+0x120>
    2624:	2420      	movs	r4, #32
    2626:	079b      	lsls	r3, r3, #30
    2628:	d046      	beq.n	26b8 <_ntoa_long+0x184>
    262a:	9b01      	ldr	r3, [sp, #4]
    262c:	0025      	movs	r5, r4
    262e:	9305      	str	r3, [sp, #20]
    2630:	9b05      	ldr	r3, [sp, #20]
    2632:	1918      	adds	r0, r3, r4
    2634:	1b42      	subs	r2, r0, r5
    2636:	2d00      	cmp	r5, #0
    2638:	d140      	bne.n	26bc <_ntoa_long+0x188>
    263a:	9b07      	ldr	r3, [sp, #28]
    263c:	b12b      	cbz	r3, 264a <_ntoa_long+0x116>
    263e:	9b01      	ldr	r3, [sp, #4]
    2640:	1ac4      	subs	r4, r0, r3
    2642:	9b01      	ldr	r3, [sp, #4]
    2644:	1918      	adds	r0, r3, r4
    2646:	42a7      	cmp	r7, r4
    2648:	d840      	bhi.n	26cc <_ntoa_long+0x198>
    264a:	b011      	add	sp, #68	@ 0x44
    264c:	bdf0      	pop	{r4, r5, r6, r7, pc}
    264e:	2c20      	cmp	r4, #32
    2650:	d0e8      	beq.n	2624 <_ntoa_long+0xf0>
    2652:	2258      	movs	r2, #88	@ 0x58
    2654:	a908      	add	r1, sp, #32
    2656:	550a      	strb	r2, [r1, r4]
    2658:	3401      	adds	r4, #1
    265a:	2c20      	cmp	r4, #32
    265c:	d0e2      	beq.n	2624 <_ntoa_long+0xf0>
    265e:	2230      	movs	r2, #48	@ 0x30
    2660:	a908      	add	r1, sp, #32
    2662:	550a      	strb	r2, [r1, r4]
    2664:	3401      	adds	r4, #1
    2666:	2c20      	cmp	r4, #32
    2668:	d0dc      	beq.n	2624 <_ntoa_long+0xf0>
    266a:	9a05      	ldr	r2, [sp, #20]
    266c:	b152      	cbz	r2, 2684 <_ntoa_long+0x150>
    266e:	222d      	movs	r2, #45	@ 0x2d
    2670:	a908      	add	r1, sp, #32
    2672:	550a      	strb	r2, [r1, r4]
    2674:	3401      	adds	r4, #1
    2676:	e7d6      	b.n	2626 <_ntoa_long+0xf2>
    2678:	2e02      	cmp	r6, #2
    267a:	d1ee      	bne.n	265a <_ntoa_long+0x126>
    267c:	2c20      	cmp	r4, #32
    267e:	d0d1      	beq.n	2624 <_ntoa_long+0xf0>
    2680:	2262      	movs	r2, #98	@ 0x62
    2682:	e7e7      	b.n	2654 <_ntoa_long+0x120>
    2684:	075a      	lsls	r2, r3, #29
    2686:	d501      	bpl.n	268c <_ntoa_long+0x158>
    2688:	222b      	movs	r2, #43	@ 0x2b
    268a:	e7f1      	b.n	2670 <_ntoa_long+0x13c>
    268c:	071a      	lsls	r2, r3, #28
    268e:	d5ca      	bpl.n	2626 <_ntoa_long+0xf2>
    2690:	2220      	movs	r2, #32
    2692:	e7ed      	b.n	2670 <_ntoa_long+0x13c>
    2694:	2020      	movs	r0, #32
    2696:	9b04      	ldr	r3, [sp, #16]
    2698:	9903      	ldr	r1, [sp, #12]
    269a:	9e02      	ldr	r6, [sp, #8]
    269c:	47b0      	blx	r6
    269e:	3501      	adds	r5, #1
    26a0:	9b01      	ldr	r3, [sp, #4]
    26a2:	1b1a      	subs	r2, r3, r4
    26a4:	1952      	adds	r2, r2, r5
    26a6:	42af      	cmp	r7, r5
    26a8:	d8f4      	bhi.n	2694 <_ntoa_long+0x160>
    26aa:	2600      	movs	r6, #0
    26ac:	42a7      	cmp	r7, r4
    26ae:	d300      	bcc.n	26b2 <_ntoa_long+0x17e>
    26b0:	1b3e      	subs	r6, r7, r4
    26b2:	9b01      	ldr	r3, [sp, #4]
    26b4:	18f3      	adds	r3, r6, r3
    26b6:	e7b9      	b.n	262c <_ntoa_long+0xf8>
    26b8:	0025      	movs	r5, r4
    26ba:	e7f1      	b.n	26a0 <_ntoa_long+0x16c>
    26bc:	ab08      	add	r3, sp, #32
    26be:	3d01      	subs	r5, #1
    26c0:	5ce8      	ldrb	r0, [r5, r3]
    26c2:	9903      	ldr	r1, [sp, #12]
    26c4:	9b04      	ldr	r3, [sp, #16]
    26c6:	9e02      	ldr	r6, [sp, #8]
    26c8:	47b0      	blx	r6
    26ca:	e7b1      	b.n	2630 <_ntoa_long+0xfc>
    26cc:	0002      	movs	r2, r0
    26ce:	9b04      	ldr	r3, [sp, #16]
    26d0:	2020      	movs	r0, #32
    26d2:	9903      	ldr	r1, [sp, #12]
    26d4:	9d02      	ldr	r5, [sp, #8]
    26d6:	47a8      	blx	r5
    26d8:	3401      	adds	r4, #1
    26da:	e7b2      	b.n	2642 <_ntoa_long+0x10e>

000026dc <_out_char>:
    26dc:	b510      	push	{r4, lr}
    26de:	b108      	cbz	r0, 26e4 <_out_char+0x8>
    26e0:	f7ff ff1a 	bl	2518 <_putchar>
    26e4:	bd10      	pop	{r4, pc}
	...

000026e8 <_vsnprintf>:
    26e8:	b5f0      	push	{r4, r5, r6, r7, lr}
    26ea:	b091      	sub	sp, #68	@ 0x44
    26ec:	001f      	movs	r7, r3
    26ee:	9c16      	ldr	r4, [sp, #88]	@ 0x58
    26f0:	9009      	str	r0, [sp, #36]	@ 0x24
    26f2:	910a      	str	r1, [sp, #40]	@ 0x28
    26f4:	9208      	str	r2, [sp, #32]
    26f6:	b909      	cbnz	r1, 26fc <_vsnprintf+0x14>
    26f8:	4bb3      	ldr	r3, [pc, #716]	@ (29c8 <_vsnprintf+0x2e0>)
    26fa:	9309      	str	r3, [sp, #36]	@ 0x24
    26fc:	2600      	movs	r6, #0
    26fe:	e0fa      	b.n	28f6 <_vsnprintf+0x20e>
    2700:	3701      	adds	r7, #1
    2702:	2825      	cmp	r0, #37	@ 0x25
    2704:	d006      	beq.n	2714 <_vsnprintf+0x2c>
    2706:	0032      	movs	r2, r6
    2708:	1c75      	adds	r5, r6, #1
    270a:	9b08      	ldr	r3, [sp, #32]
    270c:	990a      	ldr	r1, [sp, #40]	@ 0x28
    270e:	9e09      	ldr	r6, [sp, #36]	@ 0x24
    2710:	47b0      	blx	r6
    2712:	e157      	b.n	29c4 <_vsnprintf+0x2dc>
    2714:	2300      	movs	r3, #0
    2716:	2201      	movs	r2, #1
    2718:	2508      	movs	r5, #8
    271a:	e022      	b.n	2762 <_vsnprintf+0x7a>
    271c:	282d      	cmp	r0, #45	@ 0x2d
    271e:	d038      	beq.n	2792 <_vsnprintf+0xaa>
    2720:	2830      	cmp	r0, #48	@ 0x30
    2722:	d01c      	beq.n	275e <_vsnprintf+0x76>
    2724:	2200      	movs	r2, #0
    2726:	9206      	str	r2, [sp, #24]
    2728:	0002      	movs	r2, r0
    272a:	3a30      	subs	r2, #48	@ 0x30
    272c:	250a      	movs	r5, #10
    272e:	2a09      	cmp	r2, #9
    2730:	d820      	bhi.n	2774 <_vsnprintf+0x8c>
    2732:	7839      	ldrb	r1, [r7, #0]
    2734:	1c78      	adds	r0, r7, #1
    2736:	000a      	movs	r2, r1
    2738:	3a30      	subs	r2, #48	@ 0x30
    273a:	2a09      	cmp	r2, #9
    273c:	d932      	bls.n	27a4 <_vsnprintf+0xbc>
    273e:	2100      	movs	r1, #0
    2740:	783a      	ldrb	r2, [r7, #0]
    2742:	9107      	str	r1, [sp, #28]
    2744:	2a2e      	cmp	r2, #46	@ 0x2e
    2746:	d14c      	bne.n	27e2 <_vsnprintf+0xfa>
    2748:	f240 4100 	movw	r1, #1024	@ 0x400
    274c:	430b      	orrs	r3, r1
    274e:	7879      	ldrb	r1, [r7, #1]
    2750:	1c7a      	adds	r2, r7, #1
    2752:	0008      	movs	r0, r1
    2754:	3830      	subs	r0, #48	@ 0x30
    2756:	2809      	cmp	r0, #9
    2758:	d839      	bhi.n	27ce <_vsnprintf+0xe6>
    275a:	270a      	movs	r7, #10
    275c:	e02f      	b.n	27be <_vsnprintf+0xd6>
    275e:	4313      	orrs	r3, r2
    2760:	000f      	movs	r7, r1
    2762:	7838      	ldrb	r0, [r7, #0]
    2764:	1c79      	adds	r1, r7, #1
    2766:	282b      	cmp	r0, #43	@ 0x2b
    2768:	d016      	beq.n	2798 <_vsnprintf+0xb0>
    276a:	d8d7      	bhi.n	271c <_vsnprintf+0x34>
    276c:	2820      	cmp	r0, #32
    276e:	d015      	beq.n	279c <_vsnprintf+0xb4>
    2770:	2823      	cmp	r0, #35	@ 0x23
    2772:	d015      	beq.n	27a0 <_vsnprintf+0xb8>
    2774:	2200      	movs	r2, #0
    2776:	9206      	str	r2, [sp, #24]
    2778:	282a      	cmp	r0, #42	@ 0x2a
    277a:	d1e0      	bne.n	273e <_vsnprintf+0x56>
    277c:	cc04      	ldmia	r4!, {r2}
    277e:	9206      	str	r2, [sp, #24]
    2780:	2a00      	cmp	r2, #0
    2782:	da04      	bge.n	278e <_vsnprintf+0xa6>
    2784:	2202      	movs	r2, #2
    2786:	4313      	orrs	r3, r2
    2788:	9a06      	ldr	r2, [sp, #24]
    278a:	4252      	negs	r2, r2
    278c:	9206      	str	r2, [sp, #24]
    278e:	000f      	movs	r7, r1
    2790:	e7d5      	b.n	273e <_vsnprintf+0x56>
    2792:	2002      	movs	r0, #2
    2794:	4303      	orrs	r3, r0
    2796:	e7e3      	b.n	2760 <_vsnprintf+0x78>
    2798:	2004      	movs	r0, #4
    279a:	e7fb      	b.n	2794 <_vsnprintf+0xac>
    279c:	432b      	orrs	r3, r5
    279e:	e7df      	b.n	2760 <_vsnprintf+0x78>
    27a0:	2010      	movs	r0, #16
    27a2:	e7f7      	b.n	2794 <_vsnprintf+0xac>
    27a4:	9a06      	ldr	r2, [sp, #24]
    27a6:	0007      	movs	r7, r0
    27a8:	436a      	muls	r2, r5
    27aa:	3a30      	subs	r2, #48	@ 0x30
    27ac:	188a      	adds	r2, r1, r2
    27ae:	9206      	str	r2, [sp, #24]
    27b0:	e7bf      	b.n	2732 <_vsnprintf+0x4a>
    27b2:	9a07      	ldr	r2, [sp, #28]
    27b4:	437a      	muls	r2, r7
    27b6:	3a30      	subs	r2, #48	@ 0x30
    27b8:	188a      	adds	r2, r1, r2
    27ba:	9207      	str	r2, [sp, #28]
    27bc:	002a      	movs	r2, r5
    27be:	7811      	ldrb	r1, [r2, #0]
    27c0:	1c55      	adds	r5, r2, #1
    27c2:	0008      	movs	r0, r1
    27c4:	3830      	subs	r0, #48	@ 0x30
    27c6:	2809      	cmp	r0, #9
    27c8:	d9f3      	bls.n	27b2 <_vsnprintf+0xca>
    27ca:	0017      	movs	r7, r2
    27cc:	e009      	b.n	27e2 <_vsnprintf+0xfa>
    27ce:	292a      	cmp	r1, #42	@ 0x2a
    27d0:	d1fb      	bne.n	27ca <_vsnprintf+0xe2>
    27d2:	cc04      	ldmia	r4!, {r2}
    27d4:	3702      	adds	r7, #2
    27d6:	9207      	str	r2, [sp, #28]
    27d8:	43d2      	mvns	r2, r2
    27da:	9907      	ldr	r1, [sp, #28]
    27dc:	17d2      	asrs	r2, r2, #31
    27de:	4011      	ands	r1, r2
    27e0:	9107      	str	r1, [sp, #28]
    27e2:	783a      	ldrb	r2, [r7, #0]
    27e4:	1c79      	adds	r1, r7, #1
    27e6:	2a6c      	cmp	r2, #108	@ 0x6c
    27e8:	d022      	beq.n	2830 <_vsnprintf+0x148>
    27ea:	d81c      	bhi.n	2826 <_vsnprintf+0x13e>
    27ec:	2a68      	cmp	r2, #104	@ 0x68
    27ee:	d027      	beq.n	2840 <_vsnprintf+0x158>
    27f0:	2a6a      	cmp	r2, #106	@ 0x6a
    27f2:	d02d      	beq.n	2850 <_vsnprintf+0x168>
    27f4:	0039      	movs	r1, r7
    27f6:	7808      	ldrb	r0, [r1, #0]
    27f8:	1c4f      	adds	r7, r1, #1
    27fa:	2878      	cmp	r0, #120	@ 0x78
    27fc:	d883      	bhi.n	2706 <_vsnprintf+0x1e>
    27fe:	2863      	cmp	r0, #99	@ 0x63
    2800:	d829      	bhi.n	2856 <_vsnprintf+0x16e>
    2802:	2862      	cmp	r0, #98	@ 0x62
    2804:	d100      	bne.n	2808 <_vsnprintf+0x120>
    2806:	e14c      	b.n	2aa2 <_vsnprintf+0x3ba>
    2808:	2863      	cmp	r0, #99	@ 0x63
    280a:	d100      	bne.n	280e <_vsnprintf+0x126>
    280c:	e095      	b.n	293a <_vsnprintf+0x252>
    280e:	2825      	cmp	r0, #37	@ 0x25
    2810:	d100      	bne.n	2814 <_vsnprintf+0x12c>
    2812:	e778      	b.n	2706 <_vsnprintf+0x1e>
    2814:	2858      	cmp	r0, #88	@ 0x58
    2816:	d000      	beq.n	281a <_vsnprintf+0x132>
    2818:	e775      	b.n	2706 <_vsnprintf+0x1e>
    281a:	2220      	movs	r2, #32
    281c:	4313      	orrs	r3, r2
    281e:	3a10      	subs	r2, #16
    2820:	210c      	movs	r1, #12
    2822:	438b      	bics	r3, r1
    2824:	e148      	b.n	2ab8 <_vsnprintf+0x3d0>
    2826:	2a7a      	cmp	r2, #122	@ 0x7a
    2828:	d1e4      	bne.n	27f4 <_vsnprintf+0x10c>
    282a:	f240 1200 	movw	r2, #256	@ 0x100
    282e:	e00b      	b.n	2848 <_vsnprintf+0x160>
    2830:	787a      	ldrb	r2, [r7, #1]
    2832:	2a6c      	cmp	r2, #108	@ 0x6c
    2834:	d1f9      	bne.n	282a <_vsnprintf+0x142>
    2836:	f240 3200 	movw	r2, #768	@ 0x300
    283a:	4313      	orrs	r3, r2
    283c:	1cb9      	adds	r1, r7, #2
    283e:	e7da      	b.n	27f6 <_vsnprintf+0x10e>
    2840:	787a      	ldrb	r2, [r7, #1]
    2842:	2a68      	cmp	r2, #104	@ 0x68
    2844:	d002      	beq.n	284c <_vsnprintf+0x164>
    2846:	2280      	movs	r2, #128	@ 0x80
    2848:	4313      	orrs	r3, r2
    284a:	e7d4      	b.n	27f6 <_vsnprintf+0x10e>
    284c:	22c0      	movs	r2, #192	@ 0xc0
    284e:	e7f4      	b.n	283a <_vsnprintf+0x152>
    2850:	f240 2200 	movw	r2, #512	@ 0x200
    2854:	e7f8      	b.n	2848 <_vsnprintf+0x160>
    2856:	0001      	movs	r1, r0
    2858:	2201      	movs	r2, #1
    285a:	3964      	subs	r1, #100	@ 0x64
    285c:	b2c9      	uxtb	r1, r1
    285e:	408a      	lsls	r2, r1
    2860:	0011      	movs	r1, r2
    2862:	4d5a      	ldr	r5, [pc, #360]	@ (29cc <_vsnprintf+0x2e4>)
    2864:	4029      	ands	r1, r5
    2866:	422a      	tst	r2, r5
    2868:	d119      	bne.n	289e <_vsnprintf+0x1b6>
    286a:	2873      	cmp	r0, #115	@ 0x73
    286c:	d100      	bne.n	2870 <_vsnprintf+0x188>
    286e:	e0af      	b.n	29d0 <_vsnprintf+0x2e8>
    2870:	2870      	cmp	r0, #112	@ 0x70
    2872:	d000      	beq.n	2876 <_vsnprintf+0x18e>
    2874:	e747      	b.n	2706 <_vsnprintf+0x1e>
    2876:	2221      	movs	r2, #33	@ 0x21
    2878:	4313      	orrs	r3, r2
    287a:	9305      	str	r3, [sp, #20]
    287c:	2308      	movs	r3, #8
    287e:	9304      	str	r3, [sp, #16]
    2880:	9b07      	ldr	r3, [sp, #28]
    2882:	9101      	str	r1, [sp, #4]
    2884:	9303      	str	r3, [sp, #12]
    2886:	2310      	movs	r3, #16
    2888:	9302      	str	r3, [sp, #8]
    288a:	cc08      	ldmia	r4!, {r3}
    288c:	0032      	movs	r2, r6
    288e:	9300      	str	r3, [sp, #0]
    2890:	990a      	ldr	r1, [sp, #40]	@ 0x28
    2892:	9b08      	ldr	r3, [sp, #32]
    2894:	9809      	ldr	r0, [sp, #36]	@ 0x24
    2896:	f7ff fe4d 	bl	2534 <_ntoa_long>
    289a:	0006      	movs	r6, r0
    289c:	e02b      	b.n	28f6 <_vsnprintf+0x20e>
    289e:	286f      	cmp	r0, #111	@ 0x6f
    28a0:	d000      	beq.n	28a4 <_vsnprintf+0x1bc>
    28a2:	e100      	b.n	2aa6 <_vsnprintf+0x3be>
    28a4:	2208      	movs	r2, #8
    28a6:	e7bb      	b.n	2820 <_vsnprintf+0x138>
    28a8:	2878      	cmp	r0, #120	@ 0x78
    28aa:	d0b9      	beq.n	2820 <_vsnprintf+0x138>
    28ac:	4393      	bics	r3, r2
    28ae:	220a      	movs	r2, #10
    28b0:	2864      	cmp	r0, #100	@ 0x64
    28b2:	d100      	bne.n	28b6 <_vsnprintf+0x1ce>
    28b4:	e100      	b.n	2ab8 <_vsnprintf+0x3d0>
    28b6:	e7b3      	b.n	2820 <_vsnprintf+0x138>
    28b8:	6821      	ldr	r1, [r4, #0]
    28ba:	0658      	lsls	r0, r3, #25
    28bc:	d501      	bpl.n	28c2 <_vsnprintf+0x1da>
    28be:	b2c9      	uxtb	r1, r1
    28c0:	e10e      	b.n	2ae0 <_vsnprintf+0x3f8>
    28c2:	0618      	lsls	r0, r3, #24
    28c4:	d400      	bmi.n	28c8 <_vsnprintf+0x1e0>
    28c6:	e10b      	b.n	2ae0 <_vsnprintf+0x3f8>
    28c8:	b209      	sxth	r1, r1
    28ca:	e109      	b.n	2ae0 <_vsnprintf+0x3f8>
    28cc:	b999      	cbnz	r1, 28f6 <_vsnprintf+0x20e>
    28ce:	1d25      	adds	r5, r4, #4
    28d0:	05d8      	lsls	r0, r3, #23
    28d2:	d521      	bpl.n	2918 <_vsnprintf+0x230>
    28d4:	9305      	str	r3, [sp, #20]
    28d6:	9b06      	ldr	r3, [sp, #24]
    28d8:	9202      	str	r2, [sp, #8]
    28da:	9304      	str	r3, [sp, #16]
    28dc:	9b07      	ldr	r3, [sp, #28]
    28de:	9101      	str	r1, [sp, #4]
    28e0:	9303      	str	r3, [sp, #12]
    28e2:	6823      	ldr	r3, [r4, #0]
    28e4:	9300      	str	r3, [sp, #0]
    28e6:	0032      	movs	r2, r6
    28e8:	9b08      	ldr	r3, [sp, #32]
    28ea:	990a      	ldr	r1, [sp, #40]	@ 0x28
    28ec:	9809      	ldr	r0, [sp, #36]	@ 0x24
    28ee:	f7ff fe21 	bl	2534 <_ntoa_long>
    28f2:	002c      	movs	r4, r5
    28f4:	0006      	movs	r6, r0
    28f6:	7838      	ldrb	r0, [r7, #0]
    28f8:	2800      	cmp	r0, #0
    28fa:	d000      	beq.n	28fe <_vsnprintf+0x216>
    28fc:	e700      	b.n	2700 <_vsnprintf+0x18>
    28fe:	9b08      	ldr	r3, [sp, #32]
    2900:	0032      	movs	r2, r6
    2902:	429e      	cmp	r6, r3
    2904:	d300      	bcc.n	2908 <_vsnprintf+0x220>
    2906:	1e5a      	subs	r2, r3, #1
    2908:	2000      	movs	r0, #0
    290a:	9b08      	ldr	r3, [sp, #32]
    290c:	990a      	ldr	r1, [sp, #40]	@ 0x28
    290e:	9c09      	ldr	r4, [sp, #36]	@ 0x24
    2910:	47a0      	blx	r4
    2912:	0030      	movs	r0, r6
    2914:	b011      	add	sp, #68	@ 0x44
    2916:	bdf0      	pop	{r4, r5, r6, r7, pc}
    2918:	6821      	ldr	r1, [r4, #0]
    291a:	0658      	lsls	r0, r3, #25
    291c:	d509      	bpl.n	2932 <_vsnprintf+0x24a>
    291e:	b2c9      	uxtb	r1, r1
    2920:	9305      	str	r3, [sp, #20]
    2922:	9b06      	ldr	r3, [sp, #24]
    2924:	9202      	str	r2, [sp, #8]
    2926:	9304      	str	r3, [sp, #16]
    2928:	9b07      	ldr	r3, [sp, #28]
    292a:	9303      	str	r3, [sp, #12]
    292c:	2300      	movs	r3, #0
    292e:	9301      	str	r3, [sp, #4]
    2930:	e0e1      	b.n	2af6 <_vsnprintf+0x40e>
    2932:	0618      	lsls	r0, r3, #24
    2934:	d5f4      	bpl.n	2920 <_vsnprintf+0x238>
    2936:	b289      	uxth	r1, r1
    2938:	e7f2      	b.n	2920 <_vsnprintf+0x238>
    293a:	2202      	movs	r2, #2
    293c:	0019      	movs	r1, r3
    293e:	4011      	ands	r1, r2
    2940:	910c      	str	r1, [sp, #48]	@ 0x30
    2942:	4213      	tst	r3, r2
    2944:	d028      	beq.n	2998 <_vsnprintf+0x2b0>
    2946:	2301      	movs	r3, #1
    2948:	9307      	str	r3, [sp, #28]
    294a:	0023      	movs	r3, r4
    294c:	cb01      	ldmia	r3!, {r0}
    294e:	0032      	movs	r2, r6
    2950:	930b      	str	r3, [sp, #44]	@ 0x2c
    2952:	990a      	ldr	r1, [sp, #40]	@ 0x28
    2954:	9b08      	ldr	r3, [sp, #32]
    2956:	1c75      	adds	r5, r6, #1
    2958:	b2c0      	uxtb	r0, r0
    295a:	9e09      	ldr	r6, [sp, #36]	@ 0x24
    295c:	47b0      	blx	r6
    295e:	9b0c      	ldr	r3, [sp, #48]	@ 0x30
    2960:	b37b      	cbz	r3, 29c2 <_vsnprintf+0x2da>
    2962:	002a      	movs	r2, r5
    2964:	9e07      	ldr	r6, [sp, #28]
    2966:	e022      	b.n	29ae <_vsnprintf+0x2c6>
    2968:	2020      	movs	r0, #32
    296a:	9b08      	ldr	r3, [sp, #32]
    296c:	990a      	ldr	r1, [sp, #40]	@ 0x28
    296e:	9d09      	ldr	r5, [sp, #36]	@ 0x24
    2970:	47a8      	blx	r5
    2972:	9a07      	ldr	r2, [sp, #28]
    2974:	9906      	ldr	r1, [sp, #24]
    2976:	1c53      	adds	r3, r2, #1
    2978:	9307      	str	r3, [sp, #28]
    297a:	1b9b      	subs	r3, r3, r6
    297c:	4299      	cmp	r1, r3
    297e:	d8f3      	bhi.n	2968 <_vsnprintf+0x280>
    2980:	2302      	movs	r3, #2
    2982:	b109      	cbz	r1, 2988 <_vsnprintf+0x2a0>
    2984:	000b      	movs	r3, r1
    2986:	3301      	adds	r3, #1
    2988:	9a06      	ldr	r2, [sp, #24]
    298a:	9307      	str	r3, [sp, #28]
    298c:	2300      	movs	r3, #0
    298e:	b10a      	cbz	r2, 2994 <_vsnprintf+0x2ac>
    2990:	0013      	movs	r3, r2
    2992:	3b01      	subs	r3, #1
    2994:	18f6      	adds	r6, r6, r3
    2996:	e7d8      	b.n	294a <_vsnprintf+0x262>
    2998:	0032      	movs	r2, r6
    299a:	e7eb      	b.n	2974 <_vsnprintf+0x28c>
    299c:	1c53      	adds	r3, r2, #1
    299e:	930c      	str	r3, [sp, #48]	@ 0x30
    29a0:	2020      	movs	r0, #32
    29a2:	9b08      	ldr	r3, [sp, #32]
    29a4:	990a      	ldr	r1, [sp, #40]	@ 0x28
    29a6:	9c09      	ldr	r4, [sp, #36]	@ 0x24
    29a8:	47a0      	blx	r4
    29aa:	9a0c      	ldr	r2, [sp, #48]	@ 0x30
    29ac:	3601      	adds	r6, #1
    29ae:	9b06      	ldr	r3, [sp, #24]
    29b0:	42b3      	cmp	r3, r6
    29b2:	d8f3      	bhi.n	299c <_vsnprintf+0x2b4>
    29b4:	9a06      	ldr	r2, [sp, #24]
    29b6:	9907      	ldr	r1, [sp, #28]
    29b8:	2300      	movs	r3, #0
    29ba:	428a      	cmp	r2, r1
    29bc:	d300      	bcc.n	29c0 <_vsnprintf+0x2d8>
    29be:	1a53      	subs	r3, r2, r1
    29c0:	18ed      	adds	r5, r5, r3
    29c2:	9c0b      	ldr	r4, [sp, #44]	@ 0x2c
    29c4:	002e      	movs	r6, r5
    29c6:	e796      	b.n	28f6 <_vsnprintf+0x20e>
    29c8:	00002533 			@ <UNDEFINED> instruction: 00002533
    29cc:	00120821 			@ <UNDEFINED> instruction: 00120821
    29d0:	0022      	movs	r2, r4
    29d2:	ca02      	ldmia	r2!, {r1}
    29d4:	920c      	str	r2, [sp, #48]	@ 0x30
    29d6:	9a07      	ldr	r2, [sp, #28]
    29d8:	910b      	str	r1, [sp, #44]	@ 0x2c
    29da:	b90a      	cbnz	r2, 29e0 <_vsnprintf+0x2f8>
    29dc:	2201      	movs	r2, #1
    29de:	4252      	negs	r2, r2
    29e0:	990b      	ldr	r1, [sp, #44]	@ 0x2c
    29e2:	000c      	movs	r4, r1
    29e4:	188a      	adds	r2, r1, r2
    29e6:	7821      	ldrb	r1, [r4, #0]
    29e8:	b109      	cbz	r1, 29ee <_vsnprintf+0x306>
    29ea:	42a2      	cmp	r2, r4
    29ec:	d114      	bne.n	2a18 <_vsnprintf+0x330>
    29ee:	9a0b      	ldr	r2, [sp, #44]	@ 0x2c
    29f0:	0019      	movs	r1, r3
    29f2:	1aa4      	subs	r4, r4, r2
    29f4:	f240 4200 	movw	r2, #1024	@ 0x400
    29f8:	4011      	ands	r1, r2
    29fa:	910d      	str	r1, [sp, #52]	@ 0x34
    29fc:	4213      	tst	r3, r2
    29fe:	d003      	beq.n	2a08 <_vsnprintf+0x320>
    2a00:	9a07      	ldr	r2, [sp, #28]
    2a02:	4294      	cmp	r4, r2
    2a04:	d900      	bls.n	2a08 <_vsnprintf+0x320>
    2a06:	0014      	movs	r4, r2
    2a08:	2202      	movs	r2, #2
    2a0a:	0019      	movs	r1, r3
    2a0c:	4011      	ands	r1, r2
    2a0e:	910e      	str	r1, [sp, #56]	@ 0x38
    2a10:	4213      	tst	r3, r2
    2a12:	d117      	bne.n	2a44 <_vsnprintf+0x35c>
    2a14:	0032      	movs	r2, r6
    2a16:	e009      	b.n	2a2c <_vsnprintf+0x344>
    2a18:	3401      	adds	r4, #1
    2a1a:	e7e4      	b.n	29e6 <_vsnprintf+0x2fe>
    2a1c:	1c53      	adds	r3, r2, #1
    2a1e:	930f      	str	r3, [sp, #60]	@ 0x3c
    2a20:	2020      	movs	r0, #32
    2a22:	9b08      	ldr	r3, [sp, #32]
    2a24:	990a      	ldr	r1, [sp, #40]	@ 0x28
    2a26:	9d09      	ldr	r5, [sp, #36]	@ 0x24
    2a28:	47a8      	blx	r5
    2a2a:	9a0f      	ldr	r2, [sp, #60]	@ 0x3c
    2a2c:	1ba3      	subs	r3, r4, r6
    2a2e:	9906      	ldr	r1, [sp, #24]
    2a30:	189b      	adds	r3, r3, r2
    2a32:	428b      	cmp	r3, r1
    2a34:	d3f2      	bcc.n	2a1c <_vsnprintf+0x334>
    2a36:	2300      	movs	r3, #0
    2a38:	42a1      	cmp	r1, r4
    2a3a:	d300      	bcc.n	2a3e <_vsnprintf+0x356>
    2a3c:	1b0b      	subs	r3, r1, r4
    2a3e:	3401      	adds	r4, #1
    2a40:	18e4      	adds	r4, r4, r3
    2a42:	18f6      	adds	r6, r6, r3
    2a44:	0035      	movs	r5, r6
    2a46:	e008      	b.n	2a5a <_vsnprintf+0x372>
    2a48:	9307      	str	r3, [sp, #28]
    2a4a:	1c6b      	adds	r3, r5, #1
    2a4c:	002a      	movs	r2, r5
    2a4e:	930f      	str	r3, [sp, #60]	@ 0x3c
    2a50:	9d09      	ldr	r5, [sp, #36]	@ 0x24
    2a52:	9b08      	ldr	r3, [sp, #32]
    2a54:	990a      	ldr	r1, [sp, #40]	@ 0x28
    2a56:	47a8      	blx	r5
    2a58:	9d0f      	ldr	r5, [sp, #60]	@ 0x3c
    2a5a:	9b0b      	ldr	r3, [sp, #44]	@ 0x2c
    2a5c:	1b9b      	subs	r3, r3, r6
    2a5e:	5d58      	ldrb	r0, [r3, r5]
    2a60:	b138      	cbz	r0, 2a72 <_vsnprintf+0x38a>
    2a62:	9b0d      	ldr	r3, [sp, #52]	@ 0x34
    2a64:	2b00      	cmp	r3, #0
    2a66:	d0f0      	beq.n	2a4a <_vsnprintf+0x362>
    2a68:	9b07      	ldr	r3, [sp, #28]
    2a6a:	9a07      	ldr	r2, [sp, #28]
    2a6c:	3b01      	subs	r3, #1
    2a6e:	2a00      	cmp	r2, #0
    2a70:	d1ea      	bne.n	2a48 <_vsnprintf+0x360>
    2a72:	9b0e      	ldr	r3, [sp, #56]	@ 0x38
    2a74:	b19b      	cbz	r3, 2a9e <_vsnprintf+0x3b6>
    2a76:	002a      	movs	r2, r5
    2a78:	e007      	b.n	2a8a <_vsnprintf+0x3a2>
    2a7a:	1c53      	adds	r3, r2, #1
    2a7c:	9307      	str	r3, [sp, #28]
    2a7e:	2020      	movs	r0, #32
    2a80:	9b08      	ldr	r3, [sp, #32]
    2a82:	990a      	ldr	r1, [sp, #40]	@ 0x28
    2a84:	9e09      	ldr	r6, [sp, #36]	@ 0x24
    2a86:	47b0      	blx	r6
    2a88:	9a07      	ldr	r2, [sp, #28]
    2a8a:	1b63      	subs	r3, r4, r5
    2a8c:	9906      	ldr	r1, [sp, #24]
    2a8e:	18d3      	adds	r3, r2, r3
    2a90:	4299      	cmp	r1, r3
    2a92:	d8f2      	bhi.n	2a7a <_vsnprintf+0x392>
    2a94:	2300      	movs	r3, #0
    2a96:	42a1      	cmp	r1, r4
    2a98:	d300      	bcc.n	2a9c <_vsnprintf+0x3b4>
    2a9a:	1b0b      	subs	r3, r1, r4
    2a9c:	18ed      	adds	r5, r5, r3
    2a9e:	9c0c      	ldr	r4, [sp, #48]	@ 0x30
    2aa0:	e790      	b.n	29c4 <_vsnprintf+0x2dc>
    2aa2:	2202      	movs	r2, #2
    2aa4:	e6bc      	b.n	2820 <_vsnprintf+0x138>
    2aa6:	2210      	movs	r2, #16
    2aa8:	286f      	cmp	r0, #111	@ 0x6f
    2aaa:	d900      	bls.n	2aae <_vsnprintf+0x3c6>
    2aac:	e6fc      	b.n	28a8 <_vsnprintf+0x1c0>
    2aae:	4393      	bics	r3, r2
    2ab0:	220a      	movs	r2, #10
    2ab2:	2869      	cmp	r0, #105	@ 0x69
    2ab4:	d000      	beq.n	2ab8 <_vsnprintf+0x3d0>
    2ab6:	e6fa      	b.n	28ae <_vsnprintf+0x1c6>
    2ab8:	0559      	lsls	r1, r3, #21
    2aba:	d501      	bpl.n	2ac0 <_vsnprintf+0x3d8>
    2abc:	2101      	movs	r1, #1
    2abe:	438b      	bics	r3, r1
    2ac0:	f240 2100 	movw	r1, #512	@ 0x200
    2ac4:	4019      	ands	r1, r3
    2ac6:	2869      	cmp	r0, #105	@ 0x69
    2ac8:	d002      	beq.n	2ad0 <_vsnprintf+0x3e8>
    2aca:	2864      	cmp	r0, #100	@ 0x64
    2acc:	d000      	beq.n	2ad0 <_vsnprintf+0x3e8>
    2ace:	e6fd      	b.n	28cc <_vsnprintf+0x1e4>
    2ad0:	2900      	cmp	r1, #0
    2ad2:	d000      	beq.n	2ad6 <_vsnprintf+0x3ee>
    2ad4:	e70f      	b.n	28f6 <_vsnprintf+0x20e>
    2ad6:	1d25      	adds	r5, r4, #4
    2ad8:	05d9      	lsls	r1, r3, #23
    2ada:	d400      	bmi.n	2ade <_vsnprintf+0x3f6>
    2adc:	e6ec      	b.n	28b8 <_vsnprintf+0x1d0>
    2ade:	6821      	ldr	r1, [r4, #0]
    2ae0:	9305      	str	r3, [sp, #20]
    2ae2:	9b06      	ldr	r3, [sp, #24]
    2ae4:	9202      	str	r2, [sp, #8]
    2ae6:	9304      	str	r3, [sp, #16]
    2ae8:	9b07      	ldr	r3, [sp, #28]
    2aea:	9303      	str	r3, [sp, #12]
    2aec:	0fcb      	lsrs	r3, r1, #31
    2aee:	9301      	str	r3, [sp, #4]
    2af0:	17cb      	asrs	r3, r1, #31
    2af2:	18c9      	adds	r1, r1, r3
    2af4:	4059      	eors	r1, r3
    2af6:	9100      	str	r1, [sp, #0]
    2af8:	e6f5      	b.n	28e6 <_vsnprintf+0x1fe>
    2afa:	46c0      	nop			@ (mov r8, r8)

00002afc <printf_>:
    2afc:	b40f      	push	{r0, r1, r2, r3}
    2afe:	b51f      	push	{r0, r1, r2, r3, r4, lr}
    2b00:	2201      	movs	r2, #1
    2b02:	a906      	add	r1, sp, #24
    2b04:	c908      	ldmia	r1!, {r3}
    2b06:	4252      	negs	r2, r2
    2b08:	9103      	str	r1, [sp, #12]
    2b0a:	9100      	str	r1, [sp, #0]
    2b0c:	4803      	ldr	r0, [pc, #12]	@ (2b1c <printf_+0x20>)
    2b0e:	a902      	add	r1, sp, #8
    2b10:	f7ff fdea 	bl	26e8 <_vsnprintf>
    2b14:	b005      	add	sp, #20
    2b16:	bc08      	pop	{r3}
    2b18:	b004      	add	sp, #16
    2b1a:	4718      	bx	r3
    2b1c:	000026dd 	ldrdeq	r2, [r0], -sp

00002b20 <sprintf_>:
    2b20:	b40e      	push	{r1, r2, r3}
    2b22:	2201      	movs	r2, #1
    2b24:	b510      	push	{r4, lr}
    2b26:	b085      	sub	sp, #20
    2b28:	ac07      	add	r4, sp, #28
    2b2a:	cc08      	ldmia	r4!, {r3}
    2b2c:	0001      	movs	r1, r0
    2b2e:	9400      	str	r4, [sp, #0]
    2b30:	4252      	negs	r2, r2
    2b32:	4804      	ldr	r0, [pc, #16]	@ (2b44 <sprintf_+0x24>)
    2b34:	9403      	str	r4, [sp, #12]
    2b36:	f7ff fdd7 	bl	26e8 <_vsnprintf>
    2b3a:	b005      	add	sp, #20
    2b3c:	bc10      	pop	{r4}
    2b3e:	bc08      	pop	{r3}
    2b40:	b003      	add	sp, #12
    2b42:	4718      	bx	r3
    2b44:	0000252b 			@ <UNDEFINED> instruction: 0000252b

00002b48 <SH_Return>:
    2b48:	2000      	movs	r0, #0
    2b4a:	4770      	bx	lr

00002b4c <_sbrk>:
    2b4c:	0003      	movs	r3, r0
    2b4e:	b510      	push	{r4, lr}
    2b50:	f3ef 8110 	mrs	r1, PRIMASK
    2b54:	b672      	cpsid	i
    2b56:	4a08      	ldr	r2, [pc, #32]	@ (2b78 <_sbrk+0x2c>)
    2b58:	4c08      	ldr	r4, [pc, #32]	@ (2b7c <_sbrk+0x30>)
    2b5a:	6810      	ldr	r0, [r2, #0]
    2b5c:	18c3      	adds	r3, r0, r3
    2b5e:	42a3      	cmp	r3, r4
    2b60:	d806      	bhi.n	2b70 <_sbrk+0x24>
    2b62:	4c07      	ldr	r4, [pc, #28]	@ (2b80 <_sbrk+0x34>)
    2b64:	42a3      	cmp	r3, r4
    2b66:	d303      	bcc.n	2b70 <_sbrk+0x24>
    2b68:	6013      	str	r3, [r2, #0]
    2b6a:	b901      	cbnz	r1, 2b6e <_sbrk+0x22>
    2b6c:	b662      	cpsie	i
    2b6e:	bd10      	pop	{r4, pc}
    2b70:	2001      	movs	r0, #1
    2b72:	4240      	negs	r0, r0
    2b74:	e7f9      	b.n	2b6a <_sbrk+0x1e>
    2b76:	46c0      	nop			@ (mov r8, r8)
    2b78:	20000c78 			@ <UNDEFINED> instruction: 20000c78
    2b7c:	2003fffc 	strdcs	pc, [r3], -ip
    2b80:	200030b8 			@ <UNDEFINED> instruction: 200030b8

00002b84 <version_get_string>:
    2b84:	4800      	ldr	r0, [pc, #0]	@ (2b88 <version_get_string+0x4>)
    2b86:	4770      	bx	lr
    2b88:	0000523f 			@ <UNDEFINED> instruction: 0000523f

00002b8c <_pop>:
    2b8c:	6883      	ldr	r3, [r0, #8]
    2b8e:	6801      	ldr	r1, [r0, #0]
    2b90:	1c5a      	adds	r2, r3, #1
    2b92:	6082      	str	r2, [r0, #8]
    2b94:	6842      	ldr	r2, [r0, #4]
    2b96:	3a01      	subs	r2, #1
    2b98:	4013      	ands	r3, r2
    2b9a:	5cc8      	ldrb	r0, [r1, r3]
    2b9c:	4770      	bx	lr

00002b9e <tsrb_get>:
    2b9e:	b5f8      	push	{r3, r4, r5, r6, r7, lr}
    2ba0:	0006      	movs	r6, r0
    2ba2:	000f      	movs	r7, r1
    2ba4:	0014      	movs	r4, r2
    2ba6:	0015      	movs	r5, r2
    2ba8:	b11d      	cbz	r5, 2bb2 <tsrb_get+0x14>
    2baa:	68b2      	ldr	r2, [r6, #8]
    2bac:	68f3      	ldr	r3, [r6, #12]
    2bae:	429a      	cmp	r2, r3
    2bb0:	d101      	bne.n	2bb6 <tsrb_get+0x18>
    2bb2:	1b60      	subs	r0, r4, r5
    2bb4:	bdf8      	pop	{r3, r4, r5, r6, r7, pc}
    2bb6:	0030      	movs	r0, r6
    2bb8:	f7ff ffe8 	bl	2b8c <_pop>
    2bbc:	426a      	negs	r2, r5
    2bbe:	193b      	adds	r3, r7, r4
    2bc0:	5498      	strb	r0, [r3, r2]
    2bc2:	3d01      	subs	r5, #1
    2bc4:	e7f0      	b.n	2ba8 <tsrb_get+0xa>

00002bc6 <tsrb_add_one>:
    2bc6:	68c3      	ldr	r3, [r0, #12]
    2bc8:	b530      	push	{r4, r5, lr}
    2bca:	6842      	ldr	r2, [r0, #4]
    2bcc:	6884      	ldr	r4, [r0, #8]
    2bce:	1b1b      	subs	r3, r3, r4
    2bd0:	4293      	cmp	r3, r2
    2bd2:	d008      	beq.n	2be6 <tsrb_add_one+0x20>
    2bd4:	68c3      	ldr	r3, [r0, #12]
    2bd6:	6804      	ldr	r4, [r0, #0]
    2bd8:	1c5d      	adds	r5, r3, #1
    2bda:	60c5      	str	r5, [r0, #12]
    2bdc:	2000      	movs	r0, #0
    2bde:	3a01      	subs	r2, #1
    2be0:	4013      	ands	r3, r2
    2be2:	54e1      	strb	r1, [r4, r3]
    2be4:	bd30      	pop	{r4, r5, pc}
    2be6:	2001      	movs	r0, #1
    2be8:	4240      	negs	r0, r0
    2bea:	e7fb      	b.n	2be4 <tsrb_add_one+0x1e>

00002bec <mtd_init>:
    2bec:	6843      	ldr	r3, [r0, #4]
    2bee:	b510      	push	{r4, lr}
    2bf0:	0004      	movs	r4, r0
    2bf2:	b13b      	cbz	r3, 2c04 <mtd_init+0x18>
    2bf4:	2200      	movs	r2, #0
    2bf6:	681b      	ldr	r3, [r3, #0]
    2bf8:	62c2      	str	r2, [r0, #44]	@ 0x2c
    2bfa:	4798      	blx	r3
    2bfc:	b928      	cbnz	r0, 2c0a <mtd_init+0x1e>
    2bfe:	2301      	movs	r3, #1
    2c00:	64e3      	str	r3, [r4, #76]	@ 0x4c
    2c02:	bd10      	pop	{r4, pc}
    2c04:	2001      	movs	r0, #1
    2c06:	4240      	negs	r0, r0
    2c08:	e7fb      	b.n	2c02 <mtd_init+0x16>
    2c0a:	2003      	movs	r0, #3
    2c0c:	e7fb      	b.n	2c06 <mtd_init+0x1a>

00002c0e <mtd_erase>:
    2c0e:	b570      	push	{r4, r5, r6, lr}
    2c10:	0004      	movs	r4, r0
    2c12:	b1b0      	cbz	r0, 2c42 <mtd_erase+0x34>
    2c14:	6883      	ldr	r3, [r0, #8]
    2c16:	b1a3      	cbz	r3, 2c42 <mtd_erase+0x34>
    2c18:	6843      	ldr	r3, [r0, #4]
    2c1a:	b193      	cbz	r3, 2c42 <mtd_erase+0x34>
    2c1c:	685b      	ldr	r3, [r3, #4]
    2c1e:	b183      	cbz	r3, 2c42 <mtd_erase+0x34>
    2c20:	68c0      	ldr	r0, [r0, #12]
    2c22:	4288      	cmp	r0, r1
    2c24:	d90d      	bls.n	2c42 <mtd_erase+0x34>
    2c26:	1a40      	subs	r0, r0, r1
    2c28:	4290      	cmp	r0, r2
    2c2a:	d30a      	bcc.n	2c42 <mtd_erase+0x34>
    2c2c:	2000      	movs	r0, #0
    2c2e:	b13a      	cbz	r2, 2c40 <mtd_erase+0x32>
    2c30:	6ae5      	ldr	r5, [r4, #44]	@ 0x2c
    2c32:	b105      	cbz	r5, 2c36 <mtd_erase+0x28>
    2c34:	e7fe      	b.n	2c34 <mtd_erase+0x26>
    2c36:	2001      	movs	r0, #1
    2c38:	62e0      	str	r0, [r4, #44]	@ 0x2c
    2c3a:	0020      	movs	r0, r4
    2c3c:	4798      	blx	r3
    2c3e:	62e5      	str	r5, [r4, #44]	@ 0x2c
    2c40:	bd70      	pop	{r4, r5, r6, pc}
    2c42:	2001      	movs	r0, #1
    2c44:	4240      	negs	r0, r0
    2c46:	e7fb      	b.n	2c40 <mtd_erase+0x32>

00002c48 <mtd_read>:
    2c48:	b5f7      	push	{r0, r1, r2, r4, r5, r6, r7, lr}
    2c4a:	0004      	movs	r4, r0
    2c4c:	2000      	movs	r0, #0
    2c4e:	9f08      	ldr	r7, [sp, #32]
    2c50:	6038      	str	r0, [r7, #0]
    2c52:	b1b4      	cbz	r4, 2c82 <mtd_read+0x3a>
    2c54:	68e0      	ldr	r0, [r4, #12]
    2c56:	4288      	cmp	r0, r1
    2c58:	d913      	bls.n	2c82 <mtd_read+0x3a>
    2c5a:	1a40      	subs	r0, r0, r1
    2c5c:	4290      	cmp	r0, r2
    2c5e:	d310      	bcc.n	2c82 <mtd_read+0x3a>
    2c60:	b16a      	cbz	r2, 2c7e <mtd_read+0x36>
    2c62:	6860      	ldr	r0, [r4, #4]
    2c64:	b168      	cbz	r0, 2c82 <mtd_read+0x3a>
    2c66:	6886      	ldr	r6, [r0, #8]
    2c68:	b15e      	cbz	r6, 2c82 <mtd_read+0x3a>
    2c6a:	6ae5      	ldr	r5, [r4, #44]	@ 0x2c
    2c6c:	b105      	cbz	r5, 2c70 <mtd_read+0x28>
    2c6e:	e7fe      	b.n	2c6e <mtd_read+0x26>
    2c70:	2001      	movs	r0, #1
    2c72:	62e0      	str	r0, [r4, #44]	@ 0x2c
    2c74:	0020      	movs	r0, r4
    2c76:	9700      	str	r7, [sp, #0]
    2c78:	47b0      	blx	r6
    2c7a:	62e5      	str	r5, [r4, #44]	@ 0x2c
    2c7c:	bdfe      	pop	{r1, r2, r3, r4, r5, r6, r7, pc}
    2c7e:	0010      	movs	r0, r2
    2c80:	e7fc      	b.n	2c7c <mtd_read+0x34>
    2c82:	2001      	movs	r0, #1
    2c84:	4240      	negs	r0, r0
    2c86:	e7f9      	b.n	2c7c <mtd_read+0x34>

00002c88 <mtd_write>:
    2c88:	b5f7      	push	{r0, r1, r2, r4, r5, r6, r7, lr}
    2c8a:	0004      	movs	r4, r0
    2c8c:	2000      	movs	r0, #0
    2c8e:	9f08      	ldr	r7, [sp, #32]
    2c90:	6038      	str	r0, [r7, #0]
    2c92:	b1a4      	cbz	r4, 2cbe <mtd_write+0x36>
    2c94:	68e0      	ldr	r0, [r4, #12]
    2c96:	4288      	cmp	r0, r1
    2c98:	d911      	bls.n	2cbe <mtd_write+0x36>
    2c9a:	1a40      	subs	r0, r0, r1
    2c9c:	4290      	cmp	r0, r2
    2c9e:	d30e      	bcc.n	2cbe <mtd_write+0x36>
    2ca0:	6860      	ldr	r0, [r4, #4]
    2ca2:	b160      	cbz	r0, 2cbe <mtd_write+0x36>
    2ca4:	68c6      	ldr	r6, [r0, #12]
    2ca6:	b156      	cbz	r6, 2cbe <mtd_write+0x36>
    2ca8:	b14a      	cbz	r2, 2cbe <mtd_write+0x36>
    2caa:	6ae5      	ldr	r5, [r4, #44]	@ 0x2c
    2cac:	b105      	cbz	r5, 2cb0 <mtd_write+0x28>
    2cae:	e7fe      	b.n	2cae <mtd_write+0x26>
    2cb0:	2001      	movs	r0, #1
    2cb2:	62e0      	str	r0, [r4, #44]	@ 0x2c
    2cb4:	0020      	movs	r0, r4
    2cb6:	9700      	str	r7, [sp, #0]
    2cb8:	47b0      	blx	r6
    2cba:	62e5      	str	r5, [r4, #44]	@ 0x2c
    2cbc:	bdfe      	pop	{r1, r2, r3, r4, r5, r6, r7, pc}
    2cbe:	2001      	movs	r0, #1
    2cc0:	4240      	negs	r0, r0
    2cc2:	e7fb      	b.n	2cbc <mtd_write+0x34>

00002cc4 <mtd_get_info>:
    2cc4:	b530      	push	{r4, r5, lr}
    2cc6:	0004      	movs	r4, r0
    2cc8:	b085      	sub	sp, #20
    2cca:	0008      	movs	r0, r1
    2ccc:	b1a4      	cbz	r4, 2cf8 <mtd_get_info+0x34>
    2cce:	6ce3      	ldr	r3, [r4, #76]	@ 0x4c
    2cd0:	b193      	cbz	r3, 2cf8 <mtd_get_info+0x34>
    2cd2:	b189      	cbz	r1, 2cf8 <mtd_get_info+0x34>
    2cd4:	69e3      	ldr	r3, [r4, #28]
    2cd6:	7d22      	ldrb	r2, [r4, #20]
    2cd8:	b903      	cbnz	r3, 2cdc <mtd_get_info+0x18>
    2cda:	4b09      	ldr	r3, [pc, #36]	@ (2d00 <mtd_get_info+0x3c>)
    2cdc:	68e1      	ldr	r1, [r4, #12]
    2cde:	68a4      	ldr	r4, [r4, #8]
    2ce0:	9100      	str	r1, [sp, #0]
    2ce2:	0aa5      	lsrs	r5, r4, #10
    2ce4:	9402      	str	r4, [sp, #8]
    2ce6:	0d0c      	lsrs	r4, r1, #20
    2ce8:	9503      	str	r5, [sp, #12]
    2cea:	4906      	ldr	r1, [pc, #24]	@ (2d04 <mtd_get_info+0x40>)
    2cec:	9401      	str	r4, [sp, #4]
    2cee:	f7ff ff17 	bl	2b20 <sprintf_>
    2cf2:	2000      	movs	r0, #0
    2cf4:	b005      	add	sp, #20
    2cf6:	bd30      	pop	{r4, r5, pc}
    2cf8:	2001      	movs	r0, #1
    2cfa:	4240      	negs	r0, r0
    2cfc:	e7fa      	b.n	2cf4 <mtd_get_info+0x30>
    2cfe:	46c0      	nop			@ (mov r8, r8)
    2d00:	00005257 			@ <UNDEFINED> instruction: 00005257
    2d04:	0000525c 			@ <UNDEFINED> instruction: 0000525c

00002d08 <SystemCoreClockUpdate>:
    2d08:	b510      	push	{r4, lr}
    2d0a:	f000 fbf5 	bl	34f8 <CLK_GetPLLClockFreq>
    2d0e:	f640 437c 	movw	r3, #3196	@ 0xc7c
    2d12:	f2c2 0300 	movt	r3, #8192	@ 0x2000
    2d16:	6018      	str	r0, [r3, #0]
    2d18:	f000 f862 	bl	2de0 <CLK_GetCPUFreq>
    2d1c:	f24a 1220 	movw	r2, #41248	@ 0xa120
    2d20:	f640 4384 	movw	r3, #3204	@ 0xc84
    2d24:	f2c0 0207 	movt	r2, #7
    2d28:	4694      	mov	ip, r2
    2d2a:	f244 2240 	movw	r2, #16960	@ 0x4240
    2d2e:	f2c2 0300 	movt	r3, #8192	@ 0x2000
    2d32:	6018      	str	r0, [r3, #0]
    2d34:	f2c0 020f 	movt	r2, #15
    2d38:	f640 4380 	movw	r3, #3200	@ 0xc80
    2d3c:	4460      	add	r0, ip
    2d3e:	fbb0 f0f2 	udiv	r0, r0, r2
    2d42:	f2c2 0300 	movt	r3, #8192	@ 0x2000
    2d46:	6018      	str	r0, [r3, #0]
    2d48:	bd10      	pop	{r4, pc}
    2d4a:	46c0      	nop			@ (mov r8, r8)

00002d4c <SystemInit>:
    2d4c:	b570      	push	{r4, r5, r6, lr}
    2d4e:	f7fd fc85 	bl	65c <__PC>
    2d52:	00c0      	lsls	r0, r0, #3
    2d54:	d41b      	bmi.n	2d8e <SystemInit+0x42>
    2d56:	2380      	movs	r3, #128	@ 0x80
    2d58:	f240 1200 	movw	r2, #256	@ 0x100
    2d5c:	2559      	movs	r5, #89	@ 0x59
    2d5e:	2416      	movs	r4, #22
    2d60:	2088      	movs	r0, #136	@ 0x88
    2d62:	05db      	lsls	r3, r3, #23
    2d64:	509d      	str	r5, [r3, r2]
    2d66:	509c      	str	r4, [r3, r2]
    2d68:	5098      	str	r0, [r3, r2]
    2d6a:	5899      	ldr	r1, [r3, r2]
    2d6c:	2900      	cmp	r1, #0
    2d6e:	d0f9      	beq.n	2d64 <SystemInit+0x18>
    2d70:	f240 12f4 	movw	r2, #500	@ 0x1f4
    2d74:	f241 0100 	movw	r1, #4096	@ 0x1000
    2d78:	5099      	str	r1, [r3, r2]
    2d7a:	f244 0300 	movw	r3, #16384	@ 0x4000
    2d7e:	320c      	adds	r2, #12
    2d80:	f2c4 0200 	movt	r2, #16384	@ 0x4000
    2d84:	6851      	ldr	r1, [r2, #4]
    2d86:	f6cf 73f0 	movt	r3, #65520	@ 0xfff0
    2d8a:	430b      	orrs	r3, r1
    2d8c:	6053      	str	r3, [r2, #4]
    2d8e:	f240 0300 	movw	r3, #0
    2d92:	f64e 5200 	movw	r2, #60672	@ 0xed00
    2d96:	f2c0 0300 	movt	r3, #0
    2d9a:	f2ce 0200 	movt	r2, #57344	@ 0xe000
    2d9e:	6093      	str	r3, [r2, #8]
    2da0:	bd70      	pop	{r4, r5, r6, pc}
    2da2:	46c0      	nop			@ (mov r8, r8)

00002da4 <CLK_GetHCLKFreq>:
    2da4:	b510      	push	{r4, lr}
    2da6:	f7ff ffaf 	bl	2d08 <SystemCoreClockUpdate>
    2daa:	f640 4384 	movw	r3, #3204	@ 0xc84
    2dae:	f2c2 0300 	movt	r3, #8192	@ 0x2000
    2db2:	6818      	ldr	r0, [r3, #0]
    2db4:	bd10      	pop	{r4, pc}
    2db6:	46c0      	nop			@ (mov r8, r8)

00002db8 <CLK_GetPCLK0Freq>:
    2db8:	b510      	push	{r4, lr}
    2dba:	f7ff ffa5 	bl	2d08 <SystemCoreClockUpdate>
    2dbe:	f640 4384 	movw	r3, #3204	@ 0xc84
    2dc2:	f2c2 0300 	movt	r3, #8192	@ 0x2000
    2dc6:	6818      	ldr	r0, [r3, #0]
    2dc8:	bd10      	pop	{r4, pc}
    2dca:	46c0      	nop			@ (mov r8, r8)

00002dcc <CLK_GetPCLK1Freq>:
    2dcc:	b510      	push	{r4, lr}
    2dce:	f7ff ff9b 	bl	2d08 <SystemCoreClockUpdate>
    2dd2:	f640 4384 	movw	r3, #3204	@ 0xc84
    2dd6:	f2c2 0300 	movt	r3, #8192	@ 0x2000
    2dda:	6818      	ldr	r0, [r3, #0]
    2ddc:	bd10      	pop	{r4, pc}
    2dde:	46c0      	nop			@ (mov r8, r8)

00002de0 <CLK_GetCPUFreq>:
    2de0:	b530      	push	{r4, r5, lr}
    2de2:	b08b      	sub	sp, #44	@ 0x2c
    2de4:	f644 63cc 	movw	r3, #20172	@ 0x4ecc
    2de8:	a902      	add	r1, sp, #8
    2dea:	000a      	movs	r2, r1
    2dec:	f2c0 0300 	movt	r3, #0
    2df0:	cb31      	ldmia	r3!, {r0, r4, r5}
    2df2:	c231      	stmia	r2!, {r0, r4, r5}
    2df4:	cb31      	ldmia	r3!, {r0, r4, r5}
    2df6:	c231      	stmia	r2!, {r0, r4, r5}
    2df8:	cb11      	ldmia	r3!, {r0, r4}
    2dfa:	c211      	stmia	r2!, {r0, r4}
    2dfc:	f240 2301 	movw	r3, #513	@ 0x201
    2e00:	f2c0 4302 	movt	r3, #1026	@ 0x402
    2e04:	9301      	str	r3, [sp, #4]
    2e06:	f240 2300 	movw	r3, #512	@ 0x200
    2e0a:	f2c4 0300 	movt	r3, #16384	@ 0x4000
    2e0e:	689c      	ldr	r4, [r3, #8]
    2e10:	6c1b      	ldr	r3, [r3, #64]	@ 0x40
    2e12:	2000      	movs	r0, #0
    2e14:	03da      	lsls	r2, r3, #15
    2e16:	d405      	bmi.n	2e24 <CLK_GetCPUFreq+0x44>
    2e18:	039a      	lsls	r2, r3, #14
    2e1a:	d536      	bpl.n	2e8a <CLK_GetCPUFreq+0xaa>
    2e1c:	f641 3000 	movw	r0, #6912	@ 0x1b00
    2e20:	f2c0 00b7 	movt	r0, #183	@ 0xb7
    2e24:	f640 437c 	movw	r3, #3196	@ 0xc7c
    2e28:	f240 2200 	movw	r2, #512	@ 0x200
    2e2c:	f2c2 0300 	movt	r3, #8192	@ 0x2000
    2e30:	6018      	str	r0, [r3, #0]
    2e32:	2307      	movs	r3, #7
    2e34:	f2c4 0200 	movt	r2, #16384	@ 0x4000
    2e38:	6915      	ldr	r5, [r2, #16]
    2e3a:	402b      	ands	r3, r5
    2e3c:	2b01      	cmp	r3, #1
    2e3e:	d03a      	beq.n	2eb6 <CLK_GetCPUFreq+0xd6>
    2e40:	2b02      	cmp	r3, #2
    2e42:	d001      	beq.n	2e48 <CLK_GetCPUFreq+0x68>
    2e44:	009b      	lsls	r3, r3, #2
    2e46:	58c8      	ldr	r0, [r1, r3]
    2e48:	f240 2300 	movw	r3, #512	@ 0x200
    2e4c:	f2c4 0300 	movt	r3, #16384	@ 0x4000
    2e50:	6a1a      	ldr	r2, [r3, #32]
    2e52:	230f      	movs	r3, #15
    2e54:	4013      	ands	r3, r2
    2e56:	3301      	adds	r3, #1
    2e58:	fbb0 f0f3 	udiv	r0, r0, r3
    2e5c:	f640 4384 	movw	r3, #3204	@ 0xc84
    2e60:	f24a 1220 	movw	r2, #41248	@ 0xa120
    2e64:	f244 2140 	movw	r1, #16960	@ 0x4240
    2e68:	f2c2 0300 	movt	r3, #8192	@ 0x2000
    2e6c:	f2c0 0207 	movt	r2, #7
    2e70:	6018      	str	r0, [r3, #0]
    2e72:	1882      	adds	r2, r0, r2
    2e74:	f2c0 010f 	movt	r1, #15
    2e78:	f640 4380 	movw	r3, #3200	@ 0xc80
    2e7c:	fbb2 f2f1 	udiv	r2, r2, r1
    2e80:	f2c2 0300 	movt	r3, #8192	@ 0x2000
    2e84:	601a      	str	r2, [r3, #0]
    2e86:	b00b      	add	sp, #44	@ 0x2c
    2e88:	bd30      	pop	{r4, r5, pc}
    2e8a:	f240 12ff 	movw	r2, #511	@ 0x1ff
    2e8e:	f24c 60c0 	movw	r0, #50880	@ 0xc6c0
    2e92:	401a      	ands	r2, r3
    2e94:	3202      	adds	r2, #2
    2e96:	0052      	lsls	r2, r2, #1
    2e98:	f2c0 002d 	movt	r0, #45	@ 0x2d
    2e9c:	4350      	muls	r0, r2
    2e9e:	041a      	lsls	r2, r3, #16
    2ea0:	0f92      	lsrs	r2, r2, #30
    2ea2:	ad01      	add	r5, sp, #4
    2ea4:	049b      	lsls	r3, r3, #18
    2ea6:	5caa      	ldrb	r2, [r5, r2]
    2ea8:	0edb      	lsrs	r3, r3, #27
    2eaa:	3301      	adds	r3, #1
    2eac:	4353      	muls	r3, r2
    2eae:	fbb0 f0f3 	udiv	r0, r0, r3
    2eb2:	0080      	lsls	r0, r0, #2
    2eb4:	e7b6      	b.n	2e24 <CLK_GetCPUFreq+0x44>
    2eb6:	2102      	movs	r1, #2
    2eb8:	4221      	tst	r1, r4
    2eba:	d118      	bne.n	2eee <CLK_GetCPUFreq+0x10e>
    2ebc:	6893      	ldr	r3, [r2, #8]
    2ebe:	f240 1000 	movw	r0, #256	@ 0x100
    2ec2:	430b      	orrs	r3, r1
    2ec4:	6093      	str	r3, [r2, #8]
    2ec6:	f241 0300 	movw	r3, #4096	@ 0x1000
    2eca:	f2c4 0304 	movt	r3, #16388	@ 0x4004
    2ece:	5818      	ldr	r0, [r3, r0]
    2ed0:	2340      	movs	r3, #64	@ 0x40
    2ed2:	4003      	ands	r3, r0
    2ed4:	4258      	negs	r0, r3
    2ed6:	4143      	adcs	r3, r0
    2ed8:	f240 3000 	movw	r0, #768	@ 0x300
    2edc:	f647 5c00 	movw	ip, #32000	@ 0x7d00
    2ee0:	425b      	negs	r3, r3
    2ee2:	4018      	ands	r0, r3
    2ee4:	6893      	ldr	r3, [r2, #8]
    2ee6:	4460      	add	r0, ip
    2ee8:	438b      	bics	r3, r1
    2eea:	6093      	str	r3, [r2, #8]
    2eec:	e7ac      	b.n	2e48 <CLK_GetCPUFreq+0x68>
    2eee:	f241 0300 	movw	r3, #4096	@ 0x1000
    2ef2:	f240 1200 	movw	r2, #256	@ 0x100
    2ef6:	f248 0c00 	movw	ip, #32768	@ 0x8000
    2efa:	f2c4 0304 	movt	r3, #16388	@ 0x4004
    2efe:	5898      	ldr	r0, [r3, r2]
    2f00:	4b02      	ldr	r3, [pc, #8]	@ (2f0c <CLK_GetCPUFreq+0x12c>)
    2f02:	0640      	lsls	r0, r0, #25
    2f04:	17c0      	asrs	r0, r0, #31
    2f06:	4018      	ands	r0, r3
    2f08:	4460      	add	r0, ip
    2f0a:	e79d      	b.n	2e48 <CLK_GetCPUFreq+0x68>
    2f0c:	fffffd00 			@ <UNDEFINED> instruction: fffffd00

00002f10 <CLK_SetHCLK>:
    2f10:	b5f0      	push	{r4, r5, r6, r7, lr}
    2f12:	f240 2700 	movw	r7, #512	@ 0x200
    2f16:	2410      	movs	r4, #16
    2f18:	2204      	movs	r2, #4
    2f1a:	46c6      	mov	lr, r8
    2f1c:	f640 4684 	movw	r6, #3204	@ 0xc84
    2f20:	f2c4 0700 	movt	r7, #16384	@ 0x4000
    2f24:	6d3b      	ldr	r3, [r7, #80]	@ 0x50
    2f26:	b500      	push	{lr}
    2f28:	401c      	ands	r4, r3
    2f2a:	683b      	ldr	r3, [r7, #0]
    2f2c:	f2c2 0600 	movt	r6, #8192	@ 0x2000
    2f30:	4313      	orrs	r3, r2
    2f32:	603b      	str	r3, [r7, #0]
    2f34:	6833      	ldr	r3, [r6, #0]
    2f36:	4688      	mov	r8, r1
    2f38:	4684      	mov	ip, r0
    2f3a:	2110      	movs	r1, #16
    2f3c:	085a      	lsrs	r2, r3, #1
    2f3e:	e001      	b.n	2f44 <CLK_SetHCLK+0x34>
    2f40:	3a01      	subs	r2, #1
    2f42:	b112      	cbz	r2, 2f4a <CLK_SetHCLK+0x3a>
    2f44:	6d3d      	ldr	r5, [r7, #80]	@ 0x50
    2f46:	4229      	tst	r1, r5
    2f48:	d0fa      	beq.n	2f40 <CLK_SetHCLK+0x30>
    2f4a:	f240 2200 	movw	r2, #512	@ 0x200
    2f4e:	2707      	movs	r7, #7
    2f50:	f2c4 0200 	movt	r2, #16384	@ 0x4000
    2f54:	6915      	ldr	r5, [r2, #16]
    2f56:	f240 10f8 	movw	r0, #504	@ 0x1f8
    2f5a:	433d      	orrs	r5, r7
    2f5c:	2780      	movs	r7, #128	@ 0x80
    2f5e:	6115      	str	r5, [r2, #16]
    2f60:	2180      	movs	r1, #128	@ 0x80
    2f62:	001a      	movs	r2, r3
    2f64:	05ff      	lsls	r7, r7, #23
    2f66:	e001      	b.n	2f6c <CLK_SetHCLK+0x5c>
    2f68:	3a01      	subs	r2, #1
    2f6a:	b112      	cbz	r2, 2f72 <CLK_SetHCLK+0x62>
    2f6c:	583d      	ldr	r5, [r7, r0]
    2f6e:	4229      	tst	r1, r5
    2f70:	d1fa      	bne.n	2f68 <CLK_SetHCLK+0x58>
    2f72:	2580      	movs	r5, #128	@ 0x80
    2f74:	f240 17f8 	movw	r7, #504	@ 0x1f8
    2f78:	2103      	movs	r1, #3
    2f7a:	05ed      	lsls	r5, r5, #23
    2f7c:	59ea      	ldr	r2, [r5, r7]
    2f7e:	438a      	bics	r2, r1
    2f80:	51ea      	str	r2, [r5, r7]
    2f82:	31fa      	adds	r1, #250	@ 0xfa
    2f84:	3ff8      	subs	r7, #248	@ 0xf8
    2f86:	31ff      	adds	r1, #255	@ 0xff
    2f88:	3fff      	subs	r7, #255	@ 0xff
    2f8a:	e001      	b.n	2f90 <CLK_SetHCLK+0x80>
    2f8c:	3b01      	subs	r3, #1
    2f8e:	b113      	cbz	r3, 2f96 <CLK_SetHCLK+0x86>
    2f90:	586a      	ldr	r2, [r5, r1]
    2f92:	4217      	tst	r7, r2
    2f94:	d1fa      	bne.n	2f8c <CLK_SetHCLK+0x7c>
    2f96:	f24c 0200 	movw	r2, #49152	@ 0xc000
    2f9a:	250f      	movs	r5, #15
    2f9c:	2704      	movs	r7, #4
    2f9e:	f2c4 0200 	movt	r2, #16384	@ 0x4000
    2fa2:	6cd3      	ldr	r3, [r2, #76]	@ 0x4c
    2fa4:	4641      	mov	r1, r8
    2fa6:	43ab      	bics	r3, r5
    2fa8:	433b      	orrs	r3, r7
    2faa:	64d3      	str	r3, [r2, #76]	@ 0x4c
    2fac:	f240 2300 	movw	r3, #512	@ 0x200
    2fb0:	f2c4 0300 	movt	r3, #16384	@ 0x4000
    2fb4:	6a1a      	ldr	r2, [r3, #32]
    2fb6:	43aa      	bics	r2, r5
    2fb8:	430a      	orrs	r2, r1
    2fba:	2107      	movs	r1, #7
    2fbc:	621a      	str	r2, [r3, #32]
    2fbe:	691a      	ldr	r2, [r3, #16]
    2fc0:	2580      	movs	r5, #128	@ 0x80
    2fc2:	438a      	bics	r2, r1
    2fc4:	4661      	mov	r1, ip
    2fc6:	430a      	orrs	r2, r1
    2fc8:	611a      	str	r2, [r3, #16]
    2fca:	f7ff fe9d 	bl	2d08 <SystemCoreClockUpdate>
    2fce:	6836      	ldr	r6, [r6, #0]
    2fd0:	f240 10f8 	movw	r0, #504	@ 0x1f8
    2fd4:	0033      	movs	r3, r6
    2fd6:	2180      	movs	r1, #128	@ 0x80
    2fd8:	05ed      	lsls	r5, r5, #23
    2fda:	e001      	b.n	2fe0 <CLK_SetHCLK+0xd0>
    2fdc:	3b01      	subs	r3, #1
    2fde:	b113      	cbz	r3, 2fe6 <CLK_SetHCLK+0xd6>
    2fe0:	582a      	ldr	r2, [r5, r0]
    2fe2:	4211      	tst	r1, r2
    2fe4:	d1fa      	bne.n	2fdc <CLK_SetHCLK+0xcc>
    2fe6:	f249 33ff 	movw	r3, #37887	@ 0x93ff
    2fea:	f245 02ff 	movw	r2, #20735	@ 0x50ff
    2fee:	f6cf 5323 	movt	r3, #64803	@ 0xfd23
    2ff2:	f2c0 2225 	movt	r2, #549	@ 0x225
    2ff6:	18f3      	adds	r3, r6, r3
    2ff8:	4293      	cmp	r3, r2
    2ffa:	d84a      	bhi.n	3092 <CLK_SetHCLK+0x182>
    2ffc:	2180      	movs	r1, #128	@ 0x80
    2ffe:	f240 12f8 	movw	r2, #504	@ 0x1f8
    3002:	2003      	movs	r0, #3
    3004:	05c9      	lsls	r1, r1, #23
    3006:	588b      	ldr	r3, [r1, r2]
    3008:	4383      	bics	r3, r0
    300a:	3802      	subs	r0, #2
    300c:	4303      	orrs	r3, r0
    300e:	508b      	str	r3, [r1, r2]
    3010:	2580      	movs	r5, #128	@ 0x80
    3012:	0033      	movs	r3, r6
    3014:	f240 10fc 	movw	r0, #508	@ 0x1fc
    3018:	2101      	movs	r1, #1
    301a:	05ed      	lsls	r5, r5, #23
    301c:	e001      	b.n	3022 <CLK_SetHCLK+0x112>
    301e:	3b01      	subs	r3, #1
    3020:	b113      	cbz	r3, 3028 <CLK_SetHCLK+0x118>
    3022:	582a      	ldr	r2, [r5, r0]
    3024:	4211      	tst	r1, r2
    3026:	d1fa      	bne.n	301e <CLK_SetHCLK+0x10e>
    3028:	f640 7380 	movw	r3, #3968	@ 0xf80
    302c:	f647 023f 	movw	r2, #30783	@ 0x783f
    3030:	f6cf 5305 	movt	r3, #64773	@ 0xfd05
    3034:	f2c0 127d 	movt	r2, #381	@ 0x17d
    3038:	18f3      	adds	r3, r6, r3
    303a:	4293      	cmp	r3, r2
    303c:	d815      	bhi.n	306a <CLK_SetHCLK+0x15a>
    303e:	f24c 0200 	movw	r2, #49152	@ 0xc000
    3042:	210f      	movs	r1, #15
    3044:	f2c4 0200 	movt	r2, #16384	@ 0x4000
    3048:	6cd3      	ldr	r3, [r2, #76]	@ 0x4c
    304a:	438b      	bics	r3, r1
    304c:	390c      	subs	r1, #12
    304e:	430b      	orrs	r3, r1
    3050:	64d3      	str	r3, [r2, #76]	@ 0x4c
    3052:	b93c      	cbnz	r4, 3064 <CLK_SetHCLK+0x154>
    3054:	f240 2300 	movw	r3, #512	@ 0x200
    3058:	2104      	movs	r1, #4
    305a:	f2c4 0300 	movt	r3, #16384	@ 0x4000
    305e:	681a      	ldr	r2, [r3, #0]
    3060:	438a      	bics	r2, r1
    3062:	601a      	str	r2, [r3, #0]
    3064:	bc80      	pop	{r7}
    3066:	46b8      	mov	r8, r7
    3068:	bdf0      	pop	{r4, r5, r6, r7, pc}
    306a:	f248 73c0 	movw	r3, #34752	@ 0x87c0
    306e:	f6cf 6382 	movt	r3, #65154	@ 0xfe82
    3072:	18f3      	adds	r3, r6, r3
    3074:	4293      	cmp	r3, r2
    3076:	d931      	bls.n	30dc <CLK_SetHCLK+0x1cc>
    3078:	4296      	cmp	r6, r2
    307a:	d8ea      	bhi.n	3052 <CLK_SetHCLK+0x142>
    307c:	f24c 0200 	movw	r2, #49152	@ 0xc000
    3080:	210f      	movs	r1, #15
    3082:	f2c4 0200 	movt	r2, #16384	@ 0x4000
    3086:	6cd3      	ldr	r3, [r2, #76]	@ 0x4c
    3088:	438b      	bics	r3, r1
    308a:	390e      	subs	r1, #14
    308c:	430b      	orrs	r3, r1
    308e:	64d3      	str	r3, [r2, #76]	@ 0x4c
    3090:	e7df      	b.n	3052 <CLK_SetHCLK+0x142>
    3092:	f24f 63ff 	movw	r3, #63231	@ 0xf6ff
    3096:	f246 22ff 	movw	r2, #25343	@ 0x62ff
    309a:	f6cf 73c2 	movt	r3, #65474	@ 0xffc2
    309e:	f2c0 229f 	movt	r2, #671	@ 0x29f
    30a2:	18f3      	adds	r3, r6, r3
    30a4:	4293      	cmp	r3, r2
    30a6:	d90e      	bls.n	30c6 <CLK_SetHCLK+0x1b6>
    30a8:	f640 1300 	movw	r3, #2304	@ 0x900
    30ac:	f2c0 033d 	movt	r3, #61	@ 0x3d
    30b0:	429e      	cmp	r6, r3
    30b2:	d8ad      	bhi.n	3010 <CLK_SetHCLK+0x100>
    30b4:	2180      	movs	r1, #128	@ 0x80
    30b6:	f240 12f8 	movw	r2, #504	@ 0x1f8
    30ba:	2003      	movs	r0, #3
    30bc:	05c9      	lsls	r1, r1, #23
    30be:	588b      	ldr	r3, [r1, r2]
    30c0:	4303      	orrs	r3, r0
    30c2:	508b      	str	r3, [r1, r2]
    30c4:	e7a4      	b.n	3010 <CLK_SetHCLK+0x100>
    30c6:	2180      	movs	r1, #128	@ 0x80
    30c8:	f240 12f8 	movw	r2, #504	@ 0x1f8
    30cc:	2003      	movs	r0, #3
    30ce:	05c9      	lsls	r1, r1, #23
    30d0:	588b      	ldr	r3, [r1, r2]
    30d2:	4383      	bics	r3, r0
    30d4:	3801      	subs	r0, #1
    30d6:	4303      	orrs	r3, r0
    30d8:	508b      	str	r3, [r1, r2]
    30da:	e799      	b.n	3010 <CLK_SetHCLK+0x100>
    30dc:	f24c 0200 	movw	r2, #49152	@ 0xc000
    30e0:	210f      	movs	r1, #15
    30e2:	f2c4 0200 	movt	r2, #16384	@ 0x4000
    30e6:	6cd3      	ldr	r3, [r2, #76]	@ 0x4c
    30e8:	438b      	bics	r3, r1
    30ea:	390d      	subs	r1, #13
    30ec:	430b      	orrs	r3, r1
    30ee:	64d3      	str	r3, [r2, #76]	@ 0x4c
    30f0:	e7af      	b.n	3052 <CLK_SetHCLK+0x142>
    30f2:	46c0      	nop			@ (mov r8, r8)

000030f4 <CLK_SetModuleClock>:
    30f4:	b5f0      	push	{r4, r5, r6, r7, lr}
    30f6:	4647      	mov	r7, r8
    30f8:	46ce      	mov	lr, r9
    30fa:	f644 63cc 	movw	r3, #20172	@ 0x4ecc
    30fe:	b580      	push	{r7, lr}
    3100:	f2c0 0300 	movt	r3, #0
    3104:	b089      	sub	sp, #36	@ 0x24
    3106:	001c      	movs	r4, r3
    3108:	466e      	mov	r6, sp
    310a:	3420      	adds	r4, #32
    310c:	4688      	mov	r8, r1
    310e:	4691      	mov	r9, r2
    3110:	cc86      	ldmia	r4!, {r1, r2, r7}
    3112:	c686      	stmia	r6!, {r1, r2, r7}
    3114:	6824      	ldr	r4, [r4, #0]
    3116:	3330      	adds	r3, #48	@ 0x30
    3118:	6034      	str	r4, [r6, #0]
    311a:	ac04      	add	r4, sp, #16
    311c:	0026      	movs	r6, r4
    311e:	cb86      	ldmia	r3!, {r1, r2, r7}
    3120:	c686      	stmia	r6!, {r1, r2, r7}
    3122:	681b      	ldr	r3, [r3, #0]
    3124:	466d      	mov	r5, sp
    3126:	6033      	str	r3, [r6, #0]
    3128:	f240 2300 	movw	r3, #512	@ 0x200
    312c:	2601      	movs	r6, #1
    312e:	f2c4 0300 	movt	r3, #16384	@ 0x4000
    3132:	f2c4 0600 	movt	r6, #16384	@ 0x4000
    3136:	689f      	ldr	r7, [r3, #8]
    3138:	42b0      	cmp	r0, r6
    313a:	d034      	beq.n	31a6 <CLK_SetModuleClock+0xb2>
    313c:	23ff      	movs	r3, #255	@ 0xff
    313e:	029b      	lsls	r3, r3, #10
    3140:	4218      	tst	r0, r3
    3142:	d013      	beq.n	316c <CLK_SetModuleClock+0x78>
    3144:	0303      	lsls	r3, r0, #12
    3146:	0f9b      	lsrs	r3, r3, #30
    3148:	009b      	lsls	r3, r3, #2
    314a:	591e      	ldr	r6, [r3, r4]
    314c:	f240 2320 	movw	r3, #544	@ 0x220
    3150:	f2c4 0300 	movt	r3, #16384	@ 0x4000
    3154:	469c      	mov	ip, r3
    3156:	0384      	lsls	r4, r0, #14
    3158:	0587      	lsls	r7, r0, #22
    315a:	0e24      	lsrs	r4, r4, #24
    315c:	0eff      	lsrs	r7, r7, #27
    315e:	40bc      	lsls	r4, r7
    3160:	464a      	mov	r2, r9
    3162:	4466      	add	r6, ip
    3164:	6833      	ldr	r3, [r6, #0]
    3166:	43a3      	bics	r3, r4
    3168:	4313      	orrs	r3, r2
    316a:	6033      	str	r3, [r6, #0]
    316c:	23e0      	movs	r3, #224	@ 0xe0
    316e:	051b      	lsls	r3, r3, #20
    3170:	4218      	tst	r0, r3
    3172:	d013      	beq.n	319c <CLK_SetModuleClock+0xa8>
    3174:	0083      	lsls	r3, r0, #2
    3176:	0f9b      	lsrs	r3, r3, #30
    3178:	009b      	lsls	r3, r3, #2
    317a:	58ec      	ldr	r4, [r5, r3]
    317c:	f240 2310 	movw	r3, #528	@ 0x210
    3180:	f2c4 0300 	movt	r3, #16384	@ 0x4000
    3184:	469c      	mov	ip, r3
    3186:	0102      	lsls	r2, r0, #4
    3188:	01c0      	lsls	r0, r0, #7
    318a:	0f52      	lsrs	r2, r2, #29
    318c:	0ec0      	lsrs	r0, r0, #27
    318e:	4082      	lsls	r2, r0
    3190:	4464      	add	r4, ip
    3192:	6823      	ldr	r3, [r4, #0]
    3194:	4393      	bics	r3, r2
    3196:	4642      	mov	r2, r8
    3198:	4313      	orrs	r3, r2
    319a:	6023      	str	r3, [r4, #0]
    319c:	b009      	add	sp, #36	@ 0x24
    319e:	bcc0      	pop	{r6, r7}
    31a0:	46b9      	mov	r9, r7
    31a2:	46b0      	mov	r8, r6
    31a4:	bdf0      	pop	{r4, r5, r6, r7, pc}
    31a6:	2202      	movs	r2, #2
    31a8:	423a      	tst	r2, r7
    31aa:	d112      	bne.n	31d2 <CLK_SetModuleClock+0xde>
    31ac:	f241 0400 	movw	r4, #4096	@ 0x1000
    31b0:	f240 1500 	movw	r5, #256	@ 0x100
    31b4:	2680      	movs	r6, #128	@ 0x80
    31b6:	4641      	mov	r1, r8
    31b8:	6898      	ldr	r0, [r3, #8]
    31ba:	f2c4 0404 	movt	r4, #16388	@ 0x4004
    31be:	4310      	orrs	r0, r2
    31c0:	6098      	str	r0, [r3, #8]
    31c2:	5960      	ldr	r0, [r4, r5]
    31c4:	43b0      	bics	r0, r6
    31c6:	4301      	orrs	r1, r0
    31c8:	5161      	str	r1, [r4, r5]
    31ca:	6899      	ldr	r1, [r3, #8]
    31cc:	4391      	bics	r1, r2
    31ce:	6099      	str	r1, [r3, #8]
    31d0:	e7e4      	b.n	319c <CLK_SetModuleClock+0xa8>
    31d2:	f241 0200 	movw	r2, #4096	@ 0x1000
    31d6:	f240 1000 	movw	r0, #256	@ 0x100
    31da:	2480      	movs	r4, #128	@ 0x80
    31dc:	4641      	mov	r1, r8
    31de:	f2c4 0204 	movt	r2, #16388	@ 0x4004
    31e2:	5813      	ldr	r3, [r2, r0]
    31e4:	43a3      	bics	r3, r4
    31e6:	430b      	orrs	r3, r1
    31e8:	5013      	str	r3, [r2, r0]
    31ea:	e7d7      	b.n	319c <CLK_SetModuleClock+0xa8>

000031ec <CLK_EnableXtalRC>:
    31ec:	f240 2300 	movw	r3, #512	@ 0x200
    31f0:	f2c4 0300 	movt	r3, #16384	@ 0x4000
    31f4:	681a      	ldr	r2, [r3, #0]
    31f6:	4302      	orrs	r2, r0
    31f8:	601a      	str	r2, [r3, #0]
    31fa:	4770      	bx	lr

000031fc <CLK_EnableModuleClock>:
    31fc:	f240 2204 	movw	r2, #516	@ 0x204
    3200:	211f      	movs	r1, #31
    3202:	f2c4 0200 	movt	r2, #16384	@ 0x4000
    3206:	4694      	mov	ip, r2
    3208:	2201      	movs	r2, #1
    320a:	4001      	ands	r1, r0
    320c:	408a      	lsls	r2, r1
    320e:	0f83      	lsrs	r3, r0, #30
    3210:	b510      	push	{r4, lr}
    3212:	009b      	lsls	r3, r3, #2
    3214:	4463      	add	r3, ip
    3216:	681c      	ldr	r4, [r3, #0]
    3218:	4322      	orrs	r2, r4
    321a:	601a      	str	r2, [r3, #0]
    321c:	bd10      	pop	{r4, pc}
    321e:	46c0      	nop			@ (mov r8, r8)

00003220 <CLK_DisableModuleClock>:
    3220:	f240 2204 	movw	r2, #516	@ 0x204
    3224:	f2c4 0200 	movt	r2, #16384	@ 0x4000
    3228:	4694      	mov	ip, r2
    322a:	221f      	movs	r2, #31
    322c:	2101      	movs	r1, #1
    322e:	4002      	ands	r2, r0
    3230:	4091      	lsls	r1, r2
    3232:	0f83      	lsrs	r3, r0, #30
    3234:	009b      	lsls	r3, r3, #2
    3236:	4463      	add	r3, ip
    3238:	681a      	ldr	r2, [r3, #0]
    323a:	438a      	bics	r2, r1
    323c:	601a      	str	r2, [r3, #0]
    323e:	4770      	bx	lr

00003240 <CLK_EnablePLL>:
    3240:	b5f0      	push	{r4, r5, r6, r7, lr}
    3242:	4657      	mov	r7, sl
    3244:	46de      	mov	lr, fp
    3246:	464e      	mov	r6, r9
    3248:	4645      	mov	r5, r8
    324a:	f240 2300 	movw	r3, #512	@ 0x200
    324e:	2280      	movs	r2, #128	@ 0x80
    3250:	b5e0      	push	{r5, r6, r7, lr}
    3252:	f2c4 0300 	movt	r3, #16384	@ 0x4000
    3256:	000f      	movs	r7, r1
    3258:	6c19      	ldr	r1, [r3, #64]	@ 0x40
    325a:	0252      	lsls	r2, r2, #9
    325c:	430a      	orrs	r2, r1
    325e:	b085      	sub	sp, #20
    3260:	641a      	str	r2, [r3, #64]	@ 0x40
    3262:	f640 4284 	movw	r2, #3204	@ 0xc84
    3266:	f2c2 0200 	movt	r2, #8192	@ 0x2000
    326a:	6811      	ldr	r1, [r2, #0]
    326c:	0004      	movs	r4, r0
    326e:	681a      	ldr	r2, [r3, #0]
    3270:	0849      	lsrs	r1, r1, #1
    3272:	2800      	cmp	r0, #0
    3274:	d000      	beq.n	3278 <CLK_EnablePLL+0x38>
    3276:	e0a5      	b.n	33c4 <CLK_EnablePLL+0x184>
    3278:	2001      	movs	r0, #1
    327a:	4302      	orrs	r2, r0
    327c:	601a      	str	r2, [r3, #0]
    327e:	2501      	movs	r5, #1
    3280:	000a      	movs	r2, r1
    3282:	e001      	b.n	3288 <CLK_EnablePLL+0x48>
    3284:	3a01      	subs	r2, #1
    3286:	b112      	cbz	r2, 328e <CLK_EnablePLL+0x4e>
    3288:	6d18      	ldr	r0, [r3, #80]	@ 0x50
    328a:	4205      	tst	r5, r0
    328c:	d0fa      	beq.n	3284 <CLK_EnablePLL+0x44>
    328e:	f64c 2300 	movw	r3, #51712	@ 0xca00
    3292:	f6cf 6391 	movt	r3, #65169	@ 0xfe91
    3296:	18fa      	adds	r2, r7, r3
    3298:	f648 4300 	movw	r3, #35840	@ 0x8c00
    329c:	f6c0 237d 	movt	r3, #2685	@ 0xa7d
    32a0:	429a      	cmp	r2, r3
    32a2:	d900      	bls.n	32a6 <CLK_EnablePLL+0x66>
    32a4:	e0af      	b.n	3406 <CLK_EnablePLL+0x1c6>
    32a6:	f243 53ff 	movw	r3, #13823	@ 0x35ff
    32aa:	f2c0 136e 	movt	r3, #366	@ 0x16e
    32ae:	429a      	cmp	r2, r3
    32b0:	d900      	bls.n	32b4 <CLK_EnablePLL+0x74>
    32b2:	e095      	b.n	33e0 <CLK_EnablePLL+0x1a0>
    32b4:	f24c 0300 	movw	r3, #49152	@ 0xc000
    32b8:	431c      	orrs	r4, r3
    32ba:	2304      	movs	r3, #4
    32bc:	00bf      	lsls	r7, r7, #2
    32be:	f648 5580 	movw	r5, #36224	@ 0x8d80
    32c2:	f2c0 055b 	movt	r5, #91	@ 0x5b
    32c6:	2001      	movs	r0, #1
    32c8:	f641 3b00 	movw	fp, #6912	@ 0x1b00
    32cc:	9500      	str	r5, [sp, #0]
    32ce:	f64e 2500 	movw	r5, #59904	@ 0xea00
    32d2:	f240 0a00 	movw	sl, #0
    32d6:	2200      	movs	r2, #0
    32d8:	f240 0803 	movw	r8, #3
    32dc:	f240 2602 	movw	r6, #514	@ 0x202
    32e0:	4240      	negs	r0, r0
    32e2:	f2c0 0bb7 	movt	fp, #183	@ 0xb7
    32e6:	f2c0 6532 	movt	r5, #1586	@ 0x632
    32ea:	9101      	str	r1, [sp, #4]
    32ec:	9302      	str	r3, [sp, #8]
    32ee:	9403      	str	r4, [sp, #12]
    32f0:	e005      	b.n	32fe <CLK_EnablePLL+0xbe>
    32f2:	f240 0c01 	movw	ip, #1
    32f6:	44e0      	add	r8, ip
    32f8:	4643      	mov	r3, r8
    32fa:	2b21      	cmp	r3, #33	@ 0x21
    32fc:	d038      	beq.n	3370 <CLK_EnablePLL+0x130>
    32fe:	f647 3180 	movw	r1, #31616	@ 0x7b80
    3302:	fbbb f3f8 	udiv	r3, fp, r8
    3306:	f6cf 71e1 	movt	r1, #65505	@ 0xffe1
    330a:	9c00      	ldr	r4, [sp, #0]
    330c:	1859      	adds	r1, r3, r1
    330e:	42a1      	cmp	r1, r4
    3310:	d8ef      	bhi.n	32f2 <CLK_EnablePLL+0xb2>
    3312:	005c      	lsls	r4, r3, #1
    3314:	009b      	lsls	r3, r3, #2
    3316:	4691      	mov	r9, r2
    3318:	4684      	mov	ip, r0
    331a:	2202      	movs	r2, #2
    331c:	1af8      	subs	r0, r7, r3
    331e:	e00a      	b.n	3336 <CLK_EnablePLL+0xf6>
    3320:	1bd9      	subs	r1, r3, r7
    3322:	458c      	cmp	ip, r1
    3324:	d902      	bls.n	332c <CLK_EnablePLL+0xec>
    3326:	46c2      	mov	sl, r8
    3328:	4691      	mov	r9, r2
    332a:	468c      	mov	ip, r1
    332c:	3201      	adds	r2, #1
    332e:	191b      	adds	r3, r3, r4
    3330:	1b00      	subs	r0, r0, r4
    3332:	42b2      	cmp	r2, r6
    3334:	d014      	beq.n	3360 <CLK_EnablePLL+0x120>
    3336:	f642 0100 	movw	r1, #10240	@ 0x2800
    333a:	f6cf 2147 	movt	r1, #64071	@ 0xfa47
    333e:	1859      	adds	r1, r3, r1
    3340:	42a9      	cmp	r1, r5
    3342:	d8f3      	bhi.n	332c <CLK_EnablePLL+0xec>
    3344:	429f      	cmp	r7, r3
    3346:	d3eb      	bcc.n	3320 <CLK_EnablePLL+0xe0>
    3348:	4584      	cmp	ip, r0
    334a:	d9ef      	bls.n	332c <CLK_EnablePLL+0xec>
    334c:	46c2      	mov	sl, r8
    334e:	2800      	cmp	r0, #0
    3350:	d0cf      	beq.n	32f2 <CLK_EnablePLL+0xb2>
    3352:	4691      	mov	r9, r2
    3354:	3201      	adds	r2, #1
    3356:	4684      	mov	ip, r0
    3358:	191b      	adds	r3, r3, r4
    335a:	1b00      	subs	r0, r0, r4
    335c:	42b2      	cmp	r2, r6
    335e:	d1ea      	bne.n	3336 <CLK_EnablePLL+0xf6>
    3360:	4660      	mov	r0, ip
    3362:	f240 0c01 	movw	ip, #1
    3366:	44e0      	add	r8, ip
    3368:	4643      	mov	r3, r8
    336a:	464a      	mov	r2, r9
    336c:	2b21      	cmp	r3, #33	@ 0x21
    336e:	d1c6      	bne.n	32fe <CLK_EnablePLL+0xbe>
    3370:	4650      	mov	r0, sl
    3372:	9c03      	ldr	r4, [sp, #12]
    3374:	3801      	subs	r0, #1
    3376:	1e95      	subs	r5, r2, #2
    3378:	432c      	orrs	r4, r5
    337a:	0240      	lsls	r0, r0, #9
    337c:	4320      	orrs	r0, r4
    337e:	f240 2400 	movw	r4, #512	@ 0x200
    3382:	f2c4 0400 	movt	r4, #16384	@ 0x4000
    3386:	9b02      	ldr	r3, [sp, #8]
    3388:	9901      	ldr	r1, [sp, #4]
    338a:	6420      	str	r0, [r4, #64]	@ 0x40
    338c:	4650      	mov	r0, sl
    338e:	4343      	muls	r3, r0
    3390:	f641 3000 	movw	r0, #6912	@ 0x1b00
    3394:	f2c0 00b7 	movt	r0, #183	@ 0xb7
    3398:	fbb0 f3f3 	udiv	r3, r0, r3
    339c:	0050      	lsls	r0, r2, #1
    339e:	4358      	muls	r0, r3
    33a0:	f240 2200 	movw	r2, #512	@ 0x200
    33a4:	2404      	movs	r4, #4
    33a6:	f2c4 0200 	movt	r2, #16384	@ 0x4000
    33aa:	e001      	b.n	33b0 <CLK_EnablePLL+0x170>
    33ac:	3901      	subs	r1, #1
    33ae:	b111      	cbz	r1, 33b6 <CLK_EnablePLL+0x176>
    33b0:	6d13      	ldr	r3, [r2, #80]	@ 0x50
    33b2:	421c      	tst	r4, r3
    33b4:	d0fa      	beq.n	33ac <CLK_EnablePLL+0x16c>
    33b6:	b005      	add	sp, #20
    33b8:	bcf0      	pop	{r4, r5, r6, r7}
    33ba:	46bb      	mov	fp, r7
    33bc:	46b2      	mov	sl, r6
    33be:	46a9      	mov	r9, r5
    33c0:	46a0      	mov	r8, r4
    33c2:	bdf0      	pop	{r4, r5, r6, r7, pc}
    33c4:	2004      	movs	r0, #4
    33c6:	4302      	orrs	r2, r0
    33c8:	601a      	str	r2, [r3, #0]
    33ca:	2510      	movs	r5, #16
    33cc:	000a      	movs	r2, r1
    33ce:	e003      	b.n	33d8 <CLK_EnablePLL+0x198>
    33d0:	3a01      	subs	r2, #1
    33d2:	2a00      	cmp	r2, #0
    33d4:	d100      	bne.n	33d8 <CLK_EnablePLL+0x198>
    33d6:	e75a      	b.n	328e <CLK_EnablePLL+0x4e>
    33d8:	6d18      	ldr	r0, [r3, #80]	@ 0x50
    33da:	4205      	tst	r5, r0
    33dc:	d0f8      	beq.n	33d0 <CLK_EnablePLL+0x190>
    33de:	e756      	b.n	328e <CLK_EnablePLL+0x4e>
    33e0:	f249 4200 	movw	r2, #37888	@ 0x9400
    33e4:	f646 30ff 	movw	r0, #27647	@ 0x6bff
    33e8:	f6cf 5223 	movt	r2, #64803	@ 0xfd23
    33ec:	f2c0 20dc 	movt	r0, #732	@ 0x2dc
    33f0:	18ba      	adds	r2, r7, r2
    33f2:	2301      	movs	r3, #1
    33f4:	4282      	cmp	r2, r0
    33f6:	d900      	bls.n	33fa <CLK_EnablePLL+0x1ba>
    33f8:	e761      	b.n	32be <CLK_EnablePLL+0x7e>
    33fa:	f244 0300 	movw	r3, #16384	@ 0x4000
    33fe:	007f      	lsls	r7, r7, #1
    3400:	431c      	orrs	r4, r3
    3402:	2302      	movs	r3, #2
    3404:	e75b      	b.n	32be <CLK_EnablePLL+0x7e>
    3406:	f24c 230e 	movw	r3, #49678	@ 0xc20e
    340a:	431c      	orrs	r4, r3
    340c:	f240 2300 	movw	r3, #512	@ 0x200
    3410:	f646 4000 	movw	r0, #27648	@ 0x6c00
    3414:	f2c4 0300 	movt	r3, #16384	@ 0x4000
    3418:	641c      	str	r4, [r3, #64]	@ 0x40
    341a:	f2c0 20dc 	movt	r0, #732	@ 0x2dc
    341e:	e7bf      	b.n	33a0 <CLK_EnablePLL+0x160>

00003420 <CLK_SetCoreClock>:
    3420:	f240 2300 	movw	r3, #512	@ 0x200
    3424:	f2c4 0300 	movt	r3, #16384	@ 0x4000
    3428:	b570      	push	{r4, r5, r6, lr}
    342a:	6d1e      	ldr	r6, [r3, #80]	@ 0x50
    342c:	f243 6300 	movw	r3, #13824	@ 0x3600
    3430:	f2c0 136e 	movt	r3, #366	@ 0x16e
    3434:	0001      	movs	r1, r0
    3436:	4298      	cmp	r0, r3
    3438:	d200      	bcs.n	343c <CLK_SetCoreClock+0x1c>
    343a:	0019      	movs	r1, r3
    343c:	f64d 0300 	movw	r3, #55296	@ 0xd800
    3440:	f2c0 53b8 	movt	r3, #1464	@ 0x5b8
    3444:	4299      	cmp	r1, r3
    3446:	d900      	bls.n	344a <CLK_SetCoreClock+0x2a>
    3448:	0019      	movs	r1, r3
    344a:	f240 2400 	movw	r4, #512	@ 0x200
    344e:	2204      	movs	r2, #4
    3450:	f2c4 0400 	movt	r4, #16384	@ 0x4000
    3454:	6823      	ldr	r3, [r4, #0]
    3456:	2510      	movs	r5, #16
    3458:	4313      	orrs	r3, r2
    345a:	6023      	str	r3, [r4, #0]
    345c:	f640 4384 	movw	r3, #3204	@ 0xc84
    3460:	f2c2 0300 	movt	r3, #8192	@ 0x2000
    3464:	681b      	ldr	r3, [r3, #0]
    3466:	085b      	lsrs	r3, r3, #1
    3468:	e001      	b.n	346e <CLK_SetCoreClock+0x4e>
    346a:	3b01      	subs	r3, #1
    346c:	b113      	cbz	r3, 3474 <CLK_SetCoreClock+0x54>
    346e:	6d22      	ldr	r2, [r4, #80]	@ 0x50
    3470:	4215      	tst	r5, r2
    3472:	d0fa      	beq.n	346a <CLK_SetCoreClock+0x4a>
    3474:	f240 2400 	movw	r4, #512	@ 0x200
    3478:	2207      	movs	r2, #7
    347a:	f2c4 0400 	movt	r4, #16384	@ 0x4000
    347e:	6923      	ldr	r3, [r4, #16]
    3480:	4313      	orrs	r3, r2
    3482:	6123      	str	r3, [r4, #16]
    3484:	6a23      	ldr	r3, [r4, #32]
    3486:	3208      	adds	r2, #8
    3488:	4393      	bics	r3, r2
    348a:	6223      	str	r3, [r4, #32]
    348c:	6d23      	ldr	r3, [r4, #80]	@ 0x50
    348e:	07db      	lsls	r3, r3, #31
    3490:	d514      	bpl.n	34bc <CLK_SetCoreClock+0x9c>
    3492:	2000      	movs	r0, #0
    3494:	f7ff fed4 	bl	3240 <CLK_EnablePLL>
    3498:	2410      	movs	r4, #16
    349a:	0005      	movs	r5, r0
    349c:	4034      	ands	r4, r6
    349e:	2100      	movs	r1, #0
    34a0:	2002      	movs	r0, #2
    34a2:	f7ff fd35 	bl	2f10 <CLK_SetHCLK>
    34a6:	b93c      	cbnz	r4, 34b8 <CLK_SetCoreClock+0x98>
    34a8:	f240 2300 	movw	r3, #512	@ 0x200
    34ac:	2104      	movs	r1, #4
    34ae:	f2c4 0300 	movt	r3, #16384	@ 0x4000
    34b2:	681a      	ldr	r2, [r3, #0]
    34b4:	438a      	bics	r2, r1
    34b6:	601a      	str	r2, [r3, #0]
    34b8:	0028      	movs	r0, r5
    34ba:	bd70      	pop	{r4, r5, r6, pc}
    34bc:	2080      	movs	r0, #128	@ 0x80
    34be:	0300      	lsls	r0, r0, #12
    34c0:	f7ff febe 	bl	3240 <CLK_EnablePLL>
    34c4:	6d23      	ldr	r3, [r4, #80]	@ 0x50
    34c6:	2410      	movs	r4, #16
    34c8:	0005      	movs	r5, r0
    34ca:	401c      	ands	r4, r3
    34cc:	e7e7      	b.n	349e <CLK_SetCoreClock+0x7e>
    34ce:	46c0      	nop			@ (mov r8, r8)

000034d0 <CLK_WaitClockReady>:
    34d0:	f640 4384 	movw	r3, #3204	@ 0xc84
    34d4:	f240 2100 	movw	r1, #512	@ 0x200
    34d8:	f2c2 0300 	movt	r3, #8192	@ 0x2000
    34dc:	0002      	movs	r2, r0
    34de:	6818      	ldr	r0, [r3, #0]
    34e0:	f2c4 0100 	movt	r1, #16384	@ 0x4000
    34e4:	0840      	lsrs	r0, r0, #1
    34e6:	e001      	b.n	34ec <CLK_WaitClockReady+0x1c>
    34e8:	3801      	subs	r0, #1
    34ea:	b120      	cbz	r0, 34f6 <CLK_WaitClockReady+0x26>
    34ec:	6d0b      	ldr	r3, [r1, #80]	@ 0x50
    34ee:	4013      	ands	r3, r2
    34f0:	4293      	cmp	r3, r2
    34f2:	d1f9      	bne.n	34e8 <CLK_WaitClockReady+0x18>
    34f4:	2001      	movs	r0, #1
    34f6:	4770      	bx	lr

000034f8 <CLK_GetPLLClockFreq>:
    34f8:	f240 2301 	movw	r3, #513	@ 0x201
    34fc:	b082      	sub	sp, #8
    34fe:	f2c0 4302 	movt	r3, #1026	@ 0x402
    3502:	9301      	str	r3, [sp, #4]
    3504:	f240 2300 	movw	r3, #512	@ 0x200
    3508:	f2c4 0300 	movt	r3, #16384	@ 0x4000
    350c:	6c1b      	ldr	r3, [r3, #64]	@ 0x40
    350e:	2000      	movs	r0, #0
    3510:	03da      	lsls	r2, r3, #15
    3512:	d416      	bmi.n	3542 <CLK_GetPLLClockFreq+0x4a>
    3514:	039a      	lsls	r2, r3, #14
    3516:	d416      	bmi.n	3546 <CLK_GetPLLClockFreq+0x4e>
    3518:	f240 12ff 	movw	r2, #511	@ 0x1ff
    351c:	f24c 60c0 	movw	r0, #50880	@ 0xc6c0
    3520:	401a      	ands	r2, r3
    3522:	3202      	adds	r2, #2
    3524:	0052      	lsls	r2, r2, #1
    3526:	f2c0 002d 	movt	r0, #45	@ 0x2d
    352a:	4350      	muls	r0, r2
    352c:	041a      	lsls	r2, r3, #16
    352e:	0f92      	lsrs	r2, r2, #30
    3530:	a901      	add	r1, sp, #4
    3532:	049b      	lsls	r3, r3, #18
    3534:	5c8a      	ldrb	r2, [r1, r2]
    3536:	0edb      	lsrs	r3, r3, #27
    3538:	3301      	adds	r3, #1
    353a:	4353      	muls	r3, r2
    353c:	fbb0 f0f3 	udiv	r0, r0, r3
    3540:	0080      	lsls	r0, r0, #2
    3542:	b002      	add	sp, #8
    3544:	4770      	bx	lr
    3546:	f641 3000 	movw	r0, #6912	@ 0x1b00
    354a:	f2c0 00b7 	movt	r0, #183	@ 0xb7
    354e:	e7f8      	b.n	3542 <CLK_GetPLLClockFreq+0x4a>

00003550 <CLK_GetModuleClockSource>:
    3550:	b570      	push	{r4, r5, r6, lr}
    3552:	f644 63cc 	movw	r3, #20172	@ 0x4ecc
    3556:	b084      	sub	sp, #16
    3558:	0002      	movs	r2, r0
    355a:	4668      	mov	r0, sp
    355c:	f2c0 0300 	movt	r3, #0
    3560:	3320      	adds	r3, #32
    3562:	cb70      	ldmia	r3!, {r4, r5, r6}
    3564:	c070      	stmia	r0!, {r4, r5, r6}
    3566:	681b      	ldr	r3, [r3, #0]
    3568:	4669      	mov	r1, sp
    356a:	6003      	str	r3, [r0, #0]
    356c:	f240 2300 	movw	r3, #512	@ 0x200
    3570:	2001      	movs	r0, #1
    3572:	f2c4 0300 	movt	r3, #16384	@ 0x4000
    3576:	f2c4 0000 	movt	r0, #16384	@ 0x4000
    357a:	689c      	ldr	r4, [r3, #8]
    357c:	4282      	cmp	r2, r0
    357e:	d031      	beq.n	35e4 <CLK_GetModuleClockSource+0x94>
    3580:	2010      	movs	r0, #16
    3582:	f2c8 0000 	movt	r0, #32768	@ 0x8000
    3586:	4282      	cmp	r2, r0
    3588:	d027      	beq.n	35da <CLK_GetModuleClockSource+0x8a>
    358a:	2011      	movs	r0, #17
    358c:	f2c8 0000 	movt	r0, #32768	@ 0x8000
    3590:	4282      	cmp	r2, r0
    3592:	d047      	beq.n	3624 <CLK_GetModuleClockSource+0xd4>
    3594:	2012      	movs	r0, #18
    3596:	f2c8 0000 	movt	r0, #32768	@ 0x8000
    359a:	4282      	cmp	r2, r0
    359c:	d03e      	beq.n	361c <CLK_GetModuleClockSource+0xcc>
    359e:	2013      	movs	r0, #19
    35a0:	f2c8 0000 	movt	r0, #32768	@ 0x8000
    35a4:	4282      	cmp	r2, r0
    35a6:	d041      	beq.n	362c <CLK_GetModuleClockSource+0xdc>
    35a8:	23e0      	movs	r3, #224	@ 0xe0
    35aa:	0010      	movs	r0, r2
    35ac:	051b      	lsls	r3, r3, #20
    35ae:	4018      	ands	r0, r3
    35b0:	421a      	tst	r2, r3
    35b2:	d015      	beq.n	35e0 <CLK_GetModuleClockSource+0x90>
    35b4:	0093      	lsls	r3, r2, #2
    35b6:	0f9b      	lsrs	r3, r3, #30
    35b8:	009b      	lsls	r3, r3, #2
    35ba:	585b      	ldr	r3, [r3, r1]
    35bc:	f240 2110 	movw	r1, #528	@ 0x210
    35c0:	f2c4 0100 	movt	r1, #16384	@ 0x4000
    35c4:	468c      	mov	ip, r1
    35c6:	4463      	add	r3, ip
    35c8:	6818      	ldr	r0, [r3, #0]
    35ca:	01d3      	lsls	r3, r2, #7
    35cc:	0112      	lsls	r2, r2, #4
    35ce:	0edb      	lsrs	r3, r3, #27
    35d0:	0f52      	lsrs	r2, r2, #29
    35d2:	409a      	lsls	r2, r3
    35d4:	4010      	ands	r0, r2
    35d6:	40d8      	lsrs	r0, r3
    35d8:	e002      	b.n	35e0 <CLK_GetModuleClockSource+0x90>
    35da:	2001      	movs	r0, #1
    35dc:	699b      	ldr	r3, [r3, #24]
    35de:	4018      	ands	r0, r3
    35e0:	b004      	add	sp, #16
    35e2:	bd70      	pop	{r4, r5, r6, pc}
    35e4:	2202      	movs	r2, #2
    35e6:	4222      	tst	r2, r4
    35e8:	d10f      	bne.n	360a <CLK_GetModuleClockSource+0xba>
    35ea:	6899      	ldr	r1, [r3, #8]
    35ec:	f240 1000 	movw	r0, #256	@ 0x100
    35f0:	4311      	orrs	r1, r2
    35f2:	6099      	str	r1, [r3, #8]
    35f4:	f241 0100 	movw	r1, #4096	@ 0x1000
    35f8:	f2c4 0104 	movt	r1, #16388	@ 0x4004
    35fc:	5808      	ldr	r0, [r1, r0]
    35fe:	6899      	ldr	r1, [r3, #8]
    3600:	0600      	lsls	r0, r0, #24
    3602:	4391      	bics	r1, r2
    3604:	0fc0      	lsrs	r0, r0, #31
    3606:	6099      	str	r1, [r3, #8]
    3608:	e7ea      	b.n	35e0 <CLK_GetModuleClockSource+0x90>
    360a:	f241 0300 	movw	r3, #4096	@ 0x1000
    360e:	32fe      	adds	r2, #254	@ 0xfe
    3610:	f2c4 0304 	movt	r3, #16388	@ 0x4004
    3614:	5898      	ldr	r0, [r3, r2]
    3616:	0600      	lsls	r0, r0, #24
    3618:	0fc0      	lsrs	r0, r0, #31
    361a:	e7e1      	b.n	35e0 <CLK_GetModuleClockSource+0x90>
    361c:	6998      	ldr	r0, [r3, #24]
    361e:	05c0      	lsls	r0, r0, #23
    3620:	0fc0      	lsrs	r0, r0, #31
    3622:	e7dd      	b.n	35e0 <CLK_GetModuleClockSource+0x90>
    3624:	6998      	ldr	r0, [r3, #24]
    3626:	0780      	lsls	r0, r0, #30
    3628:	0fc0      	lsrs	r0, r0, #31
    362a:	e7d9      	b.n	35e0 <CLK_GetModuleClockSource+0x90>
    362c:	6998      	ldr	r0, [r3, #24]
    362e:	0580      	lsls	r0, r0, #22
    3630:	0fc0      	lsrs	r0, r0, #31
    3632:	e7d5      	b.n	35e0 <CLK_GetModuleClockSource+0x90>

00003634 <CLK_GetModuleClockDivider>:
    3634:	b570      	push	{r4, r5, r6, lr}
    3636:	f644 63cc 	movw	r3, #20172	@ 0x4ecc
    363a:	b084      	sub	sp, #16
    363c:	0002      	movs	r2, r0
    363e:	4668      	mov	r0, sp
    3640:	f2c0 0300 	movt	r3, #0
    3644:	3330      	adds	r3, #48	@ 0x30
    3646:	cb70      	ldmia	r3!, {r4, r5, r6}
    3648:	c070      	stmia	r0!, {r4, r5, r6}
    364a:	681b      	ldr	r3, [r3, #0]
    364c:	4669      	mov	r1, sp
    364e:	6003      	str	r3, [r0, #0]
    3650:	23ff      	movs	r3, #255	@ 0xff
    3652:	0010      	movs	r0, r2
    3654:	029b      	lsls	r3, r3, #10
    3656:	4018      	ands	r0, r3
    3658:	421a      	tst	r2, r3
    365a:	d011      	beq.n	3680 <CLK_GetModuleClockDivider+0x4c>
    365c:	0313      	lsls	r3, r2, #12
    365e:	0f9b      	lsrs	r3, r3, #30
    3660:	009b      	lsls	r3, r3, #2
    3662:	585b      	ldr	r3, [r3, r1]
    3664:	f240 2120 	movw	r1, #544	@ 0x220
    3668:	f2c4 0100 	movt	r1, #16384	@ 0x4000
    366c:	468c      	mov	ip, r1
    366e:	4463      	add	r3, ip
    3670:	6818      	ldr	r0, [r3, #0]
    3672:	0593      	lsls	r3, r2, #22
    3674:	0392      	lsls	r2, r2, #14
    3676:	0edb      	lsrs	r3, r3, #27
    3678:	0e12      	lsrs	r2, r2, #24
    367a:	409a      	lsls	r2, r3
    367c:	4010      	ands	r0, r2
    367e:	40d8      	lsrs	r0, r3
    3680:	b004      	add	sp, #16
    3682:	bd70      	pop	{r4, r5, r6, pc}

00003684 <FMC_Close>:
    3684:	f24c 0300 	movw	r3, #49152	@ 0xc000
    3688:	2101      	movs	r1, #1
    368a:	f2c4 0300 	movt	r3, #16384	@ 0x4000
    368e:	681a      	ldr	r2, [r3, #0]
    3690:	438a      	bics	r2, r1
    3692:	601a      	str	r2, [r3, #0]
    3694:	4770      	bx	lr
    3696:	46c0      	nop			@ (mov r8, r8)

00003698 <FMC_Erase>:
    3698:	b5f8      	push	{r3, r4, r5, r6, r7, lr}
    369a:	f241 0760 	movw	r7, #4192	@ 0x1060
    369e:	2300      	movs	r3, #0
    36a0:	f2c2 0700 	movt	r7, #8192	@ 0x2000
    36a4:	0004      	movs	r4, r0
    36a6:	603b      	str	r3, [r7, #0]
    36a8:	f7fc ffd8 	bl	65c <__PC>
    36ac:	2580      	movs	r5, #128	@ 0x80
    36ae:	0003      	movs	r3, r0
    36b0:	056d      	lsls	r5, r5, #21
    36b2:	402b      	ands	r3, r5
    36b4:	425a      	negs	r2, r3
    36b6:	4153      	adcs	r3, r2
    36b8:	f24c 0200 	movw	r2, #49152	@ 0xc000
    36bc:	f2c5 0200 	movt	r2, #20480	@ 0x5000
    36c0:	4694      	mov	ip, r2
    36c2:	2222      	movs	r2, #34	@ 0x22
    36c4:	425b      	negs	r3, r3
    36c6:	0f1b      	lsrs	r3, r3, #28
    36c8:	071b      	lsls	r3, r3, #28
    36ca:	4463      	add	r3, ip
    36cc:	60da      	str	r2, [r3, #12]
    36ce:	f7fc ffc5 	bl	65c <__PC>
    36d2:	0003      	movs	r3, r0
    36d4:	402b      	ands	r3, r5
    36d6:	425a      	negs	r2, r3
    36d8:	4153      	adcs	r3, r2
    36da:	f24c 0200 	movw	r2, #49152	@ 0xc000
    36de:	f2c5 0200 	movt	r2, #20480	@ 0x5000
    36e2:	4694      	mov	ip, r2
    36e4:	425b      	negs	r3, r3
    36e6:	0f1b      	lsrs	r3, r3, #28
    36e8:	071b      	lsls	r3, r3, #28
    36ea:	4463      	add	r3, ip
    36ec:	605c      	str	r4, [r3, #4]
    36ee:	f7fc ffb5 	bl	65c <__PC>
    36f2:	0003      	movs	r3, r0
    36f4:	402b      	ands	r3, r5
    36f6:	425a      	negs	r2, r3
    36f8:	4153      	adcs	r3, r2
    36fa:	f24c 0200 	movw	r2, #49152	@ 0xc000
    36fe:	f2c5 0200 	movt	r2, #20480	@ 0x5000
    3702:	4694      	mov	ip, r2
    3704:	2201      	movs	r2, #1
    3706:	425b      	negs	r3, r3
    3708:	0f1b      	lsrs	r3, r3, #28
    370a:	071b      	lsls	r3, r3, #28
    370c:	4463      	add	r3, ip
    370e:	611a      	str	r2, [r3, #16]
    3710:	f640 4384 	movw	r3, #3204	@ 0xc84
    3714:	f2c2 0300 	movt	r3, #8192	@ 0x2000
    3718:	681c      	ldr	r4, [r3, #0]
    371a:	2601      	movs	r6, #1
    371c:	08a4      	lsrs	r4, r4, #2
    371e:	e002      	b.n	3726 <FMC_Erase+0x8e>
    3720:	1e63      	subs	r3, r4, #1
    3722:	b354      	cbz	r4, 377a <FMC_Erase+0xe2>
    3724:	001c      	movs	r4, r3
    3726:	f7fc ff99 	bl	65c <__PC>
    372a:	0003      	movs	r3, r0
    372c:	402b      	ands	r3, r5
    372e:	425a      	negs	r2, r3
    3730:	4153      	adcs	r3, r2
    3732:	f24c 0200 	movw	r2, #49152	@ 0xc000
    3736:	f2c5 0200 	movt	r2, #20480	@ 0x5000
    373a:	4694      	mov	ip, r2
    373c:	425b      	negs	r3, r3
    373e:	0f1b      	lsrs	r3, r3, #28
    3740:	071b      	lsls	r3, r3, #28
    3742:	4463      	add	r3, ip
    3744:	691b      	ldr	r3, [r3, #16]
    3746:	421e      	tst	r6, r3
    3748:	d1ea      	bne.n	3720 <FMC_Erase+0x88>
    374a:	2400      	movs	r4, #0
    374c:	f7fc ff86 	bl	65c <__PC>
    3750:	2580      	movs	r5, #128	@ 0x80
    3752:	0003      	movs	r3, r0
    3754:	056d      	lsls	r5, r5, #21
    3756:	402b      	ands	r3, r5
    3758:	425a      	negs	r2, r3
    375a:	4153      	adcs	r3, r2
    375c:	f24c 0200 	movw	r2, #49152	@ 0xc000
    3760:	f2c5 0200 	movt	r2, #20480	@ 0x5000
    3764:	4694      	mov	ip, r2
    3766:	2640      	movs	r6, #64	@ 0x40
    3768:	425b      	negs	r3, r3
    376a:	0f1b      	lsrs	r3, r3, #28
    376c:	071b      	lsls	r3, r3, #28
    376e:	4463      	add	r3, ip
    3770:	681b      	ldr	r3, [r3, #0]
    3772:	421e      	tst	r6, r3
    3774:	d104      	bne.n	3780 <FMC_Erase+0xe8>
    3776:	0020      	movs	r0, r4
    3778:	bdf8      	pop	{r3, r4, r5, r6, r7, pc}
    377a:	001c      	movs	r4, r3
    377c:	603b      	str	r3, [r7, #0]
    377e:	e7e5      	b.n	374c <FMC_Erase+0xb4>
    3780:	f7fc ff6c 	bl	65c <__PC>
    3784:	0003      	movs	r3, r0
    3786:	402b      	ands	r3, r5
    3788:	425a      	negs	r2, r3
    378a:	4153      	adcs	r3, r2
    378c:	f24c 0200 	movw	r2, #49152	@ 0xc000
    3790:	f2c5 0200 	movt	r2, #20480	@ 0x5000
    3794:	4694      	mov	ip, r2
    3796:	2401      	movs	r4, #1
    3798:	425b      	negs	r3, r3
    379a:	0f1b      	lsrs	r3, r3, #28
    379c:	071b      	lsls	r3, r3, #28
    379e:	4463      	add	r3, ip
    37a0:	681a      	ldr	r2, [r3, #0]
    37a2:	4264      	negs	r4, r4
    37a4:	4332      	orrs	r2, r6
    37a6:	601a      	str	r2, [r3, #0]
    37a8:	603c      	str	r4, [r7, #0]
    37aa:	e7e4      	b.n	3776 <FMC_Erase+0xde>

000037ac <FMC_Open>:
    37ac:	b510      	push	{r4, lr}
    37ae:	f7fc ff55 	bl	65c <__PC>
    37b2:	2280      	movs	r2, #128	@ 0x80
    37b4:	0003      	movs	r3, r0
    37b6:	0552      	lsls	r2, r2, #21
    37b8:	4013      	ands	r3, r2
    37ba:	425a      	negs	r2, r3
    37bc:	4153      	adcs	r3, r2
    37be:	f24c 0200 	movw	r2, #49152	@ 0xc000
    37c2:	f2c5 0200 	movt	r2, #20480	@ 0x5000
    37c6:	4694      	mov	ip, r2
    37c8:	2101      	movs	r1, #1
    37ca:	425b      	negs	r3, r3
    37cc:	0f1b      	lsrs	r3, r3, #28
    37ce:	071b      	lsls	r3, r3, #28
    37d0:	4463      	add	r3, ip
    37d2:	681a      	ldr	r2, [r3, #0]
    37d4:	430a      	orrs	r2, r1
    37d6:	601a      	str	r2, [r3, #0]
    37d8:	bd10      	pop	{r4, pc}
    37da:	46c0      	nop			@ (mov r8, r8)

000037dc <FMC_Read>:
    37dc:	b5f8      	push	{r3, r4, r5, r6, r7, lr}
    37de:	f241 0760 	movw	r7, #4192	@ 0x1060
    37e2:	2600      	movs	r6, #0
    37e4:	f2c2 0700 	movt	r7, #8192	@ 0x2000
    37e8:	0004      	movs	r4, r0
    37ea:	603e      	str	r6, [r7, #0]
    37ec:	f7fc ff36 	bl	65c <__PC>
    37f0:	2580      	movs	r5, #128	@ 0x80
    37f2:	0003      	movs	r3, r0
    37f4:	056d      	lsls	r5, r5, #21
    37f6:	402b      	ands	r3, r5
    37f8:	425a      	negs	r2, r3
    37fa:	4153      	adcs	r3, r2
    37fc:	f24c 0200 	movw	r2, #49152	@ 0xc000
    3800:	f2c5 0200 	movt	r2, #20480	@ 0x5000
    3804:	4694      	mov	ip, r2
    3806:	425b      	negs	r3, r3
    3808:	0f1b      	lsrs	r3, r3, #28
    380a:	071b      	lsls	r3, r3, #28
    380c:	4463      	add	r3, ip
    380e:	60de      	str	r6, [r3, #12]
    3810:	f7fc ff24 	bl	65c <__PC>
    3814:	0003      	movs	r3, r0
    3816:	402b      	ands	r3, r5
    3818:	425a      	negs	r2, r3
    381a:	4153      	adcs	r3, r2
    381c:	f24c 0200 	movw	r2, #49152	@ 0xc000
    3820:	f2c5 0200 	movt	r2, #20480	@ 0x5000
    3824:	4694      	mov	ip, r2
    3826:	425b      	negs	r3, r3
    3828:	0f1b      	lsrs	r3, r3, #28
    382a:	071b      	lsls	r3, r3, #28
    382c:	4463      	add	r3, ip
    382e:	605c      	str	r4, [r3, #4]
    3830:	f7fc ff14 	bl	65c <__PC>
    3834:	0003      	movs	r3, r0
    3836:	402b      	ands	r3, r5
    3838:	425a      	negs	r2, r3
    383a:	4153      	adcs	r3, r2
    383c:	f24c 0200 	movw	r2, #49152	@ 0xc000
    3840:	f2c5 0200 	movt	r2, #20480	@ 0x5000
    3844:	4694      	mov	ip, r2
    3846:	2201      	movs	r2, #1
    3848:	425b      	negs	r3, r3
    384a:	0f1b      	lsrs	r3, r3, #28
    384c:	071b      	lsls	r3, r3, #28
    384e:	4463      	add	r3, ip
    3850:	611a      	str	r2, [r3, #16]
    3852:	f640 4384 	movw	r3, #3204	@ 0xc84
    3856:	f2c2 0300 	movt	r3, #8192	@ 0x2000
    385a:	681c      	ldr	r4, [r3, #0]
    385c:	3601      	adds	r6, #1
    385e:	08e4      	lsrs	r4, r4, #3
    3860:	e002      	b.n	3868 <FMC_Read+0x8c>
    3862:	1e63      	subs	r3, r4, #1
    3864:	b32c      	cbz	r4, 38b2 <FMC_Read+0xd6>
    3866:	001c      	movs	r4, r3
    3868:	f7fc fef8 	bl	65c <__PC>
    386c:	0003      	movs	r3, r0
    386e:	402b      	ands	r3, r5
    3870:	425a      	negs	r2, r3
    3872:	4153      	adcs	r3, r2
    3874:	f24c 0200 	movw	r2, #49152	@ 0xc000
    3878:	f2c5 0200 	movt	r2, #20480	@ 0x5000
    387c:	4694      	mov	ip, r2
    387e:	425b      	negs	r3, r3
    3880:	0f1b      	lsrs	r3, r3, #28
    3882:	071b      	lsls	r3, r3, #28
    3884:	4463      	add	r3, ip
    3886:	691b      	ldr	r3, [r3, #16]
    3888:	421e      	tst	r6, r3
    388a:	d1ea      	bne.n	3862 <FMC_Read+0x86>
    388c:	f7fc fee6 	bl	65c <__PC>
    3890:	2280      	movs	r2, #128	@ 0x80
    3892:	0003      	movs	r3, r0
    3894:	0552      	lsls	r2, r2, #21
    3896:	4013      	ands	r3, r2
    3898:	425a      	negs	r2, r3
    389a:	4153      	adcs	r3, r2
    389c:	f24c 0200 	movw	r2, #49152	@ 0xc000
    38a0:	f2c5 0200 	movt	r2, #20480	@ 0x5000
    38a4:	4694      	mov	ip, r2
    38a6:	425b      	negs	r3, r3
    38a8:	0f1b      	lsrs	r3, r3, #28
    38aa:	071b      	lsls	r3, r3, #28
    38ac:	4463      	add	r3, ip
    38ae:	6898      	ldr	r0, [r3, #8]
    38b0:	bdf8      	pop	{r3, r4, r5, r6, r7, pc}
    38b2:	2001      	movs	r0, #1
    38b4:	4240      	negs	r0, r0
    38b6:	6038      	str	r0, [r7, #0]
    38b8:	e7fa      	b.n	38b0 <FMC_Read+0xd4>
    38ba:	46c0      	nop			@ (mov r8, r8)

000038bc <FMC_Write>:
    38bc:	b5f8      	push	{r3, r4, r5, r6, r7, lr}
    38be:	f241 0760 	movw	r7, #4192	@ 0x1060
    38c2:	2300      	movs	r3, #0
    38c4:	f2c2 0700 	movt	r7, #8192	@ 0x2000
    38c8:	000c      	movs	r4, r1
    38ca:	0006      	movs	r6, r0
    38cc:	603b      	str	r3, [r7, #0]
    38ce:	f7fc fec5 	bl	65c <__PC>
    38d2:	2580      	movs	r5, #128	@ 0x80
    38d4:	0003      	movs	r3, r0
    38d6:	056d      	lsls	r5, r5, #21
    38d8:	402b      	ands	r3, r5
    38da:	425a      	negs	r2, r3
    38dc:	4153      	adcs	r3, r2
    38de:	f24c 0200 	movw	r2, #49152	@ 0xc000
    38e2:	f2c5 0200 	movt	r2, #20480	@ 0x5000
    38e6:	4694      	mov	ip, r2
    38e8:	2221      	movs	r2, #33	@ 0x21
    38ea:	425b      	negs	r3, r3
    38ec:	0f1b      	lsrs	r3, r3, #28
    38ee:	071b      	lsls	r3, r3, #28
    38f0:	4463      	add	r3, ip
    38f2:	60da      	str	r2, [r3, #12]
    38f4:	f7fc feb2 	bl	65c <__PC>
    38f8:	0003      	movs	r3, r0
    38fa:	402b      	ands	r3, r5
    38fc:	425a      	negs	r2, r3
    38fe:	4153      	adcs	r3, r2
    3900:	f24c 0200 	movw	r2, #49152	@ 0xc000
    3904:	f2c5 0200 	movt	r2, #20480	@ 0x5000
    3908:	4694      	mov	ip, r2
    390a:	425b      	negs	r3, r3
    390c:	0f1b      	lsrs	r3, r3, #28
    390e:	071b      	lsls	r3, r3, #28
    3910:	4463      	add	r3, ip
    3912:	605e      	str	r6, [r3, #4]
    3914:	f7fc fea2 	bl	65c <__PC>
    3918:	0003      	movs	r3, r0
    391a:	402b      	ands	r3, r5
    391c:	425a      	negs	r2, r3
    391e:	4153      	adcs	r3, r2
    3920:	f24c 0200 	movw	r2, #49152	@ 0xc000
    3924:	f2c5 0200 	movt	r2, #20480	@ 0x5000
    3928:	4694      	mov	ip, r2
    392a:	425b      	negs	r3, r3
    392c:	0f1b      	lsrs	r3, r3, #28
    392e:	071b      	lsls	r3, r3, #28
    3930:	4463      	add	r3, ip
    3932:	609c      	str	r4, [r3, #8]
    3934:	f7fc fe92 	bl	65c <__PC>
    3938:	0003      	movs	r3, r0
    393a:	402b      	ands	r3, r5
    393c:	425a      	negs	r2, r3
    393e:	4153      	adcs	r3, r2
    3940:	f24c 0200 	movw	r2, #49152	@ 0xc000
    3944:	f2c5 0200 	movt	r2, #20480	@ 0x5000
    3948:	4694      	mov	ip, r2
    394a:	2201      	movs	r2, #1
    394c:	425b      	negs	r3, r3
    394e:	0f1b      	lsrs	r3, r3, #28
    3950:	071b      	lsls	r3, r3, #28
    3952:	4463      	add	r3, ip
    3954:	611a      	str	r2, [r3, #16]
    3956:	f640 4384 	movw	r3, #3204	@ 0xc84
    395a:	f2c2 0300 	movt	r3, #8192	@ 0x2000
    395e:	681c      	ldr	r4, [r3, #0]
    3960:	2601      	movs	r6, #1
    3962:	08e4      	lsrs	r4, r4, #3
    3964:	e002      	b.n	396c <FMC_Write+0xb0>
    3966:	1e63      	subs	r3, r4, #1
    3968:	b1a4      	cbz	r4, 3994 <FMC_Write+0xd8>
    396a:	001c      	movs	r4, r3
    396c:	f7fc fe76 	bl	65c <__PC>
    3970:	0003      	movs	r3, r0
    3972:	402b      	ands	r3, r5
    3974:	425a      	negs	r2, r3
    3976:	4153      	adcs	r3, r2
    3978:	f24c 0200 	movw	r2, #49152	@ 0xc000
    397c:	f2c5 0200 	movt	r2, #20480	@ 0x5000
    3980:	4694      	mov	ip, r2
    3982:	425b      	negs	r3, r3
    3984:	0f1b      	lsrs	r3, r3, #28
    3986:	071b      	lsls	r3, r3, #28
    3988:	4463      	add	r3, ip
    398a:	691b      	ldr	r3, [r3, #16]
    398c:	421e      	tst	r6, r3
    398e:	d1ea      	bne.n	3966 <FMC_Write+0xaa>
    3990:	2000      	movs	r0, #0
    3992:	bdf8      	pop	{r3, r4, r5, r6, r7, pc}
    3994:	2001      	movs	r0, #1
    3996:	4240      	negs	r0, r0
    3998:	6038      	str	r0, [r7, #0]
    399a:	e7fa      	b.n	3992 <FMC_Write+0xd6>

0000399c <GPIO_SetMode>:
    399c:	b5f0      	push	{r4, r5, r6, r7, lr}
    399e:	46c6      	mov	lr, r8
    39a0:	2300      	movs	r3, #0
    39a2:	4690      	mov	r8, r2
    39a4:	2601      	movs	r6, #1
    39a6:	2703      	movs	r7, #3
    39a8:	b500      	push	{lr}
    39aa:	0034      	movs	r4, r6
    39ac:	000d      	movs	r5, r1
    39ae:	409c      	lsls	r4, r3
    39b0:	4025      	ands	r5, r4
    39b2:	42ac      	cmp	r4, r5
    39b4:	d108      	bne.n	39c8 <GPIO_SetMode+0x2c>
    39b6:	003a      	movs	r2, r7
    39b8:	005d      	lsls	r5, r3, #1
    39ba:	40aa      	lsls	r2, r5
    39bc:	6804      	ldr	r4, [r0, #0]
    39be:	4394      	bics	r4, r2
    39c0:	4642      	mov	r2, r8
    39c2:	40aa      	lsls	r2, r5
    39c4:	4314      	orrs	r4, r2
    39c6:	6004      	str	r4, [r0, #0]
    39c8:	3301      	adds	r3, #1
    39ca:	2b10      	cmp	r3, #16
    39cc:	d1ed      	bne.n	39aa <GPIO_SetMode+0xe>
    39ce:	bc80      	pop	{r7}
    39d0:	46b8      	mov	r8, r7
    39d2:	bdf0      	pop	{r4, r5, r6, r7, pc}

000039d4 <KS_Open>:
    39d4:	f245 0000 	movw	r0, #20480	@ 0x5000
    39d8:	f640 4384 	movw	r3, #3204	@ 0xc84
    39dc:	f2c4 0003 	movt	r0, #16387	@ 0x4003
    39e0:	6882      	ldr	r2, [r0, #8]
    39e2:	f2c2 0300 	movt	r3, #8192	@ 0x2000
    39e6:	b510      	push	{r4, lr}
    39e8:	681b      	ldr	r3, [r3, #0]
    39ea:	0612      	lsls	r2, r2, #24
    39ec:	d416      	bmi.n	3a1c <KS_Open+0x48>
    39ee:	001a      	movs	r2, r3
    39f0:	2404      	movs	r4, #4
    39f2:	e001      	b.n	39f8 <KS_Open+0x24>
    39f4:	3a01      	subs	r2, #1
    39f6:	b1f2      	cbz	r2, 3a36 <KS_Open+0x62>
    39f8:	6881      	ldr	r1, [r0, #8]
    39fa:	420c      	tst	r4, r1
    39fc:	d1fa      	bne.n	39f4 <KS_Open+0x20>
    39fe:	f240 1201 	movw	r2, #257	@ 0x101
    3a02:	6002      	str	r2, [r0, #0]
    3a04:	f245 0000 	movw	r0, #20480	@ 0x5000
    3a08:	001a      	movs	r2, r3
    3a0a:	2480      	movs	r4, #128	@ 0x80
    3a0c:	f2c4 0003 	movt	r0, #16387	@ 0x4003
    3a10:	e001      	b.n	3a16 <KS_Open+0x42>
    3a12:	3a01      	subs	r2, #1
    3a14:	b17a      	cbz	r2, 3a36 <KS_Open+0x62>
    3a16:	6881      	ldr	r1, [r0, #8]
    3a18:	420c      	tst	r4, r1
    3a1a:	d0fa      	beq.n	3a12 <KS_Open+0x3e>
    3a1c:	f245 0100 	movw	r1, #20480	@ 0x5000
    3a20:	2004      	movs	r0, #4
    3a22:	f2c4 0103 	movt	r1, #16387	@ 0x4003
    3a26:	e001      	b.n	3a2c <KS_Open+0x58>
    3a28:	3b01      	subs	r3, #1
    3a2a:	b123      	cbz	r3, 3a36 <KS_Open+0x62>
    3a2c:	688a      	ldr	r2, [r1, #8]
    3a2e:	4210      	tst	r0, r2
    3a30:	d1fa      	bne.n	3a28 <KS_Open+0x54>
    3a32:	2000      	movs	r0, #0
    3a34:	e001      	b.n	3a3a <KS_Open+0x66>
    3a36:	2002      	movs	r0, #2
    3a38:	4240      	negs	r0, r0
    3a3a:	bd10      	pop	{r4, pc}

00003a3c <QSPI_Open>:
    3a3c:	b5f0      	push	{r4, r5, r6, r7, lr}
    3a3e:	46c6      	mov	lr, r8
    3a40:	0004      	movs	r4, r0
    3a42:	000d      	movs	r5, r1
    3a44:	0016      	movs	r6, r2
    3a46:	b500      	push	{lr}
    3a48:	2b20      	cmp	r3, #32
    3a4a:	d001      	beq.n	3a50 <QSPI_Open+0x14>
    3a4c:	021b      	lsls	r3, r3, #8
    3a4e:	431e      	orrs	r6, r3
    3a50:	f7ff f9a8 	bl	2da4 <CLK_GetHCLKFreq>
    3a54:	0007      	movs	r7, r0
    3a56:	f7ff f9af 	bl	2db8 <CLK_GetPCLK0Freq>
    3a5a:	4680      	mov	r8, r0
    3a5c:	bb5d      	cbnz	r5, 3ab6 <QSPI_Open+0x7a>
    3a5e:	2301      	movs	r3, #1
    3a60:	4333      	orrs	r3, r6
    3a62:	60a5      	str	r5, [r4, #8]
    3a64:	6023      	str	r3, [r4, #0]
    3a66:	9b06      	ldr	r3, [sp, #24]
    3a68:	429f      	cmp	r7, r3
    3a6a:	d90f      	bls.n	3a8c <QSPI_Open+0x50>
    3a6c:	2300      	movs	r3, #0
    3a6e:	f2c4 0306 	movt	r3, #16390	@ 0x4006
    3a72:	429c      	cmp	r4, r3
    3a74:	d068      	beq.n	3b48 <QSPI_Open+0x10c>
    3a76:	2300      	movs	r3, #0
    3a78:	f2c5 0306 	movt	r3, #20486	@ 0x5006
    3a7c:	429c      	cmp	r4, r3
    3a7e:	d063      	beq.n	3b48 <QSPI_Open+0x10c>
    3a80:	2300      	movs	r3, #0
    3a82:	0028      	movs	r0, r5
    3a84:	6063      	str	r3, [r4, #4]
    3a86:	bc80      	pop	{r7}
    3a88:	46b8      	mov	r8, r7
    3a8a:	bdf0      	pop	{r4, r5, r6, r7, pc}
    3a8c:	f7fc fde6 	bl	65c <__PC>
    3a90:	2380      	movs	r3, #128	@ 0x80
    3a92:	0002      	movs	r2, r0
    3a94:	055b      	lsls	r3, r3, #21
    3a96:	4018      	ands	r0, r3
    3a98:	421a      	tst	r2, r3
    3a9a:	d149      	bne.n	3b30 <QSPI_Open+0xf4>
    3a9c:	2300      	movs	r3, #0
    3a9e:	f2c4 0306 	movt	r3, #16390	@ 0x4006
    3aa2:	429c      	cmp	r4, r3
    3aa4:	d070      	beq.n	3b88 <QSPI_Open+0x14c>
    3aa6:	2300      	movs	r3, #0
    3aa8:	f2c5 0306 	movt	r3, #20486	@ 0x5006
    3aac:	429c      	cmp	r4, r3
    3aae:	d06b      	beq.n	3b88 <QSPI_Open+0x14c>
    3ab0:	2300      	movs	r3, #0
    3ab2:	6063      	str	r3, [r4, #4]
    3ab4:	e7e7      	b.n	3a86 <QSPI_Open+0x4a>
    3ab6:	2201      	movs	r2, #1
    3ab8:	2300      	movs	r3, #0
    3aba:	4335      	orrs	r5, r6
    3abc:	4315      	orrs	r5, r2
    3abe:	60a3      	str	r3, [r4, #8]
    3ac0:	6025      	str	r5, [r4, #0]
    3ac2:	6063      	str	r3, [r4, #4]
    3ac4:	f7fc fdca 	bl	65c <__PC>
    3ac8:	2380      	movs	r3, #128	@ 0x80
    3aca:	0002      	movs	r2, r0
    3acc:	055b      	lsls	r3, r3, #21
    3ace:	4018      	ands	r0, r3
    3ad0:	421a      	tst	r2, r3
    3ad2:	d115      	bne.n	3b00 <QSPI_Open+0xc4>
    3ad4:	2300      	movs	r3, #0
    3ad6:	f2c4 0306 	movt	r3, #16390	@ 0x4006
    3ada:	429c      	cmp	r4, r3
    3adc:	d004      	beq.n	3ae8 <QSPI_Open+0xac>
    3ade:	2300      	movs	r3, #0
    3ae0:	f2c5 0306 	movt	r3, #20486	@ 0x5006
    3ae4:	429c      	cmp	r4, r3
    3ae6:	d1ce      	bne.n	3a86 <QSPI_Open+0x4a>
    3ae8:	f240 2200 	movw	r2, #512	@ 0x200
    3aec:	210c      	movs	r1, #12
    3aee:	f2c4 0200 	movt	r2, #16384	@ 0x4000
    3af2:	6993      	ldr	r3, [r2, #24]
    3af4:	438b      	bics	r3, r1
    3af6:	3904      	subs	r1, #4
    3af8:	430b      	orrs	r3, r1
    3afa:	6193      	str	r3, [r2, #24]
    3afc:	4640      	mov	r0, r8
    3afe:	e7c2      	b.n	3a86 <QSPI_Open+0x4a>
    3b00:	2300      	movs	r3, #0
    3b02:	f2c4 0306 	movt	r3, #16390	@ 0x4006
    3b06:	429c      	cmp	r4, r3
    3b08:	d005      	beq.n	3b16 <QSPI_Open+0xda>
    3b0a:	2300      	movs	r3, #0
    3b0c:	f2c5 0306 	movt	r3, #20486	@ 0x5006
    3b10:	2000      	movs	r0, #0
    3b12:	429c      	cmp	r4, r3
    3b14:	d1b7      	bne.n	3a86 <QSPI_Open+0x4a>
    3b16:	200c      	movs	r0, #12
    3b18:	f2c6 6020 	movt	r0, #26144	@ 0x6620
    3b1c:	f7ff fd18 	bl	3550 <CLK_GetModuleClockSource>
    3b20:	0080      	lsls	r0, r0, #2
    3b22:	2800      	cmp	r0, #0
    3b24:	d174      	bne.n	3c10 <QSPI_Open+0x1d4>
    3b26:	f641 3000 	movw	r0, #6912	@ 0x1b00
    3b2a:	f2c0 00b7 	movt	r0, #183	@ 0xb7
    3b2e:	e7aa      	b.n	3a86 <QSPI_Open+0x4a>
    3b30:	2300      	movs	r3, #0
    3b32:	f2c4 0306 	movt	r3, #16390	@ 0x4006
    3b36:	429c      	cmp	r4, r3
    3b38:	d030      	beq.n	3b9c <QSPI_Open+0x160>
    3b3a:	2300      	movs	r3, #0
    3b3c:	f2c5 0306 	movt	r3, #20486	@ 0x5006
    3b40:	429c      	cmp	r4, r3
    3b42:	d02b      	beq.n	3b9c <QSPI_Open+0x160>
    3b44:	2000      	movs	r0, #0
    3b46:	e7b3      	b.n	3ab0 <QSPI_Open+0x74>
    3b48:	200c      	movs	r0, #12
    3b4a:	f2c6 6020 	movt	r0, #26144	@ 0x6620
    3b4e:	f7ff fcff 	bl	3550 <CLK_GetModuleClockSource>
    3b52:	0080      	lsls	r0, r0, #2
    3b54:	b378      	cbz	r0, 3bb6 <QSPI_Open+0x17a>
    3b56:	200c      	movs	r0, #12
    3b58:	f2c6 6020 	movt	r0, #26144	@ 0x6620
    3b5c:	f7ff fcf8 	bl	3550 <CLK_GetModuleClockSource>
    3b60:	0080      	lsls	r0, r0, #2
    3b62:	2804      	cmp	r0, #4
    3b64:	d069      	beq.n	3c3a <QSPI_Open+0x1fe>
    3b66:	200c      	movs	r0, #12
    3b68:	f2c6 6020 	movt	r0, #26144	@ 0x6620
    3b6c:	f7ff fcf0 	bl	3550 <CLK_GetModuleClockSource>
    3b70:	0080      	lsls	r0, r0, #2
    3b72:	2808      	cmp	r0, #8
    3b74:	d05e      	beq.n	3c34 <QSPI_Open+0x1f8>
    3b76:	f641 3000 	movw	r0, #6912	@ 0x1b00
    3b7a:	f2c0 00b7 	movt	r0, #183	@ 0xb7
    3b7e:	9b06      	ldr	r3, [sp, #24]
    3b80:	429f      	cmp	r7, r3
    3b82:	d995      	bls.n	3ab0 <QSPI_Open+0x74>
    3b84:	0005      	movs	r5, r0
    3b86:	e01a      	b.n	3bbe <QSPI_Open+0x182>
    3b88:	f240 2200 	movw	r2, #512	@ 0x200
    3b8c:	210c      	movs	r1, #12
    3b8e:	f2c4 0200 	movt	r2, #16384	@ 0x4000
    3b92:	6993      	ldr	r3, [r2, #24]
    3b94:	438b      	bics	r3, r1
    3b96:	3904      	subs	r1, #4
    3b98:	430b      	orrs	r3, r1
    3b9a:	6193      	str	r3, [r2, #24]
    3b9c:	200c      	movs	r0, #12
    3b9e:	f2c6 6020 	movt	r0, #26144	@ 0x6620
    3ba2:	f7ff fcd5 	bl	3550 <CLK_GetModuleClockSource>
    3ba6:	0080      	lsls	r0, r0, #2
    3ba8:	2800      	cmp	r0, #0
    3baa:	d1d4      	bne.n	3b56 <QSPI_Open+0x11a>
    3bac:	f641 3000 	movw	r0, #6912	@ 0x1b00
    3bb0:	f2c0 00b7 	movt	r0, #183	@ 0xb7
    3bb4:	e77c      	b.n	3ab0 <QSPI_Open+0x74>
    3bb6:	f641 3500 	movw	r5, #6912	@ 0x1b00
    3bba:	f2c0 05b7 	movt	r5, #183	@ 0xb7
    3bbe:	9b06      	ldr	r3, [sp, #24]
    3bc0:	42ab      	cmp	r3, r5
    3bc2:	d300      	bcc.n	3bc6 <QSPI_Open+0x18a>
    3bc4:	e75c      	b.n	3a80 <QSPI_Open+0x44>
    3bc6:	9b06      	ldr	r3, [sp, #24]
    3bc8:	b933      	cbnz	r3, 3bd8 <QSPI_Open+0x19c>
    3bca:	f240 12ff 	movw	r2, #511	@ 0x1ff
    3bce:	6863      	ldr	r3, [r4, #4]
    3bd0:	0a68      	lsrs	r0, r5, #9
    3bd2:	4313      	orrs	r3, r2
    3bd4:	6063      	str	r3, [r4, #4]
    3bd6:	e756      	b.n	3a86 <QSPI_Open+0x4a>
    3bd8:	00a8      	lsls	r0, r5, #2
    3bda:	9b06      	ldr	r3, [sp, #24]
    3bdc:	1940      	adds	r0, r0, r5
    3bde:	0040      	lsls	r0, r0, #1
    3be0:	fbb0 f0f3 	udiv	r0, r0, r3
    3be4:	230a      	movs	r3, #10
    3be6:	3005      	adds	r0, #5
    3be8:	fbb0 f0f3 	udiv	r0, r0, r3
    3bec:	33f6      	adds	r3, #246	@ 0xf6
    3bee:	1e42      	subs	r2, r0, #1
    3bf0:	33ff      	adds	r3, #255	@ 0xff
    3bf2:	429a      	cmp	r2, r3
    3bf4:	d904      	bls.n	3c00 <QSPI_Open+0x1c4>
    3bf6:	6862      	ldr	r2, [r4, #4]
    3bf8:	0a68      	lsrs	r0, r5, #9
    3bfa:	4313      	orrs	r3, r2
    3bfc:	6063      	str	r3, [r4, #4]
    3bfe:	e742      	b.n	3a86 <QSPI_Open+0x4a>
    3c00:	6863      	ldr	r3, [r4, #4]
    3c02:	fbb5 f0f0 	udiv	r0, r5, r0
    3c06:	0a5b      	lsrs	r3, r3, #9
    3c08:	025b      	lsls	r3, r3, #9
    3c0a:	4313      	orrs	r3, r2
    3c0c:	6063      	str	r3, [r4, #4]
    3c0e:	e73a      	b.n	3a86 <QSPI_Open+0x4a>
    3c10:	200c      	movs	r0, #12
    3c12:	f2c6 6020 	movt	r0, #26144	@ 0x6620
    3c16:	f7ff fc9b 	bl	3550 <CLK_GetModuleClockSource>
    3c1a:	0080      	lsls	r0, r0, #2
    3c1c:	2804      	cmp	r0, #4
    3c1e:	d00f      	beq.n	3c40 <QSPI_Open+0x204>
    3c20:	200c      	movs	r0, #12
    3c22:	f2c6 6020 	movt	r0, #26144	@ 0x6620
    3c26:	f7ff fc93 	bl	3550 <CLK_GetModuleClockSource>
    3c2a:	0080      	lsls	r0, r0, #2
    3c2c:	2808      	cmp	r0, #8
    3c2e:	d000      	beq.n	3c32 <QSPI_Open+0x1f6>
    3c30:	e779      	b.n	3b26 <QSPI_Open+0xea>
    3c32:	e763      	b.n	3afc <QSPI_Open+0xc0>
    3c34:	f7ff f8c0 	bl	2db8 <CLK_GetPCLK0Freq>
    3c38:	e7a1      	b.n	3b7e <QSPI_Open+0x142>
    3c3a:	f7ff fc5d 	bl	34f8 <CLK_GetPLLClockFreq>
    3c3e:	e79e      	b.n	3b7e <QSPI_Open+0x142>
    3c40:	f7ff fc5a 	bl	34f8 <CLK_GetPLLClockFreq>
    3c44:	e71f      	b.n	3a86 <QSPI_Open+0x4a>
    3c46:	46c0      	nop			@ (mov r8, r8)

00003c48 <QSPI_Close>:
    3c48:	2201      	movs	r2, #1
    3c4a:	6803      	ldr	r3, [r0, #0]
    3c4c:	4393      	bics	r3, r2
    3c4e:	6003      	str	r3, [r0, #0]
    3c50:	4770      	bx	lr
    3c52:	46c0      	nop			@ (mov r8, r8)

00003c54 <QSPI_ClearRxFIFO>:
    3c54:	f240 1200 	movw	r2, #256	@ 0x100
    3c58:	6903      	ldr	r3, [r0, #16]
    3c5a:	4313      	orrs	r3, r2
    3c5c:	6103      	str	r3, [r0, #16]
    3c5e:	4770      	bx	lr

00003c60 <QSPI_DisableAutoSS>:
    3c60:	2209      	movs	r2, #9
    3c62:	6883      	ldr	r3, [r0, #8]
    3c64:	4393      	bics	r3, r2
    3c66:	6083      	str	r3, [r0, #8]
    3c68:	4770      	bx	lr
    3c6a:	46c0      	nop			@ (mov r8, r8)

00003c6c <SPI_Open>:
    3c6c:	b5f8      	push	{r3, r4, r5, r6, r7, lr}
    3c6e:	4647      	mov	r7, r8
    3c70:	46ce      	mov	lr, r9
    3c72:	000e      	movs	r6, r1
    3c74:	2101      	movs	r1, #1
    3c76:	b580      	push	{r7, lr}
    3c78:	0017      	movs	r7, r2
    3c7a:	6e02      	ldr	r2, [r0, #96]	@ 0x60
    3c7c:	0004      	movs	r4, r0
    3c7e:	438a      	bics	r2, r1
    3c80:	6602      	str	r2, [r0, #96]	@ 0x60
    3c82:	2b20      	cmp	r3, #32
    3c84:	d001      	beq.n	3c8a <SPI_Open+0x1e>
    3c86:	021b      	lsls	r3, r3, #8
    3c88:	431f      	orrs	r7, r3
    3c8a:	f7ff f88b 	bl	2da4 <CLK_GetHCLKFreq>
    3c8e:	4680      	mov	r8, r0
    3c90:	f7ff f892 	bl	2db8 <CLK_GetPCLK0Freq>
    3c94:	0005      	movs	r5, r0
    3c96:	f7ff f899 	bl	2dcc <CLK_GetPCLK1Freq>
    3c9a:	4681      	mov	r9, r0
    3c9c:	2e00      	cmp	r6, #0
    3c9e:	d000      	beq.n	3ca2 <SPI_Open+0x36>
    3ca0:	e09f      	b.n	3de2 <SPI_Open+0x176>
    3ca2:	2301      	movs	r3, #1
    3ca4:	433b      	orrs	r3, r7
    3ca6:	60a6      	str	r6, [r4, #8]
    3ca8:	6023      	str	r3, [r4, #0]
    3caa:	9b08      	ldr	r3, [sp, #32]
    3cac:	4598      	cmp	r8, r3
    3cae:	d944      	bls.n	3d3a <SPI_Open+0xce>
    3cb0:	f241 0300 	movw	r3, #4096	@ 0x1000
    3cb4:	f2c4 0306 	movt	r3, #16390	@ 0x4006
    3cb8:	429c      	cmp	r4, r3
    3cba:	d100      	bne.n	3cbe <SPI_Open+0x52>
    3cbc:	e077      	b.n	3dae <SPI_Open+0x142>
    3cbe:	f241 0300 	movw	r3, #4096	@ 0x1000
    3cc2:	f2c5 0306 	movt	r3, #20486	@ 0x5006
    3cc6:	429c      	cmp	r4, r3
    3cc8:	d100      	bne.n	3ccc <SPI_Open+0x60>
    3cca:	e070      	b.n	3dae <SPI_Open+0x142>
    3ccc:	f242 0300 	movw	r3, #8192	@ 0x2000
    3cd0:	f2c4 0306 	movt	r3, #16390	@ 0x4006
    3cd4:	429c      	cmp	r4, r3
    3cd6:	d100      	bne.n	3cda <SPI_Open+0x6e>
    3cd8:	e13e      	b.n	3f58 <SPI_Open+0x2ec>
    3cda:	f242 0300 	movw	r3, #8192	@ 0x2000
    3cde:	f2c5 0306 	movt	r3, #20486	@ 0x5006
    3ce2:	429c      	cmp	r4, r3
    3ce4:	d100      	bne.n	3ce8 <SPI_Open+0x7c>
    3ce6:	e137      	b.n	3f58 <SPI_Open+0x2ec>
    3ce8:	f243 0300 	movw	r3, #12288	@ 0x3000
    3cec:	f2c4 0306 	movt	r3, #16390	@ 0x4006
    3cf0:	429c      	cmp	r4, r3
    3cf2:	d100      	bne.n	3cf6 <SPI_Open+0x8a>
    3cf4:	e10e      	b.n	3f14 <SPI_Open+0x2a8>
    3cf6:	f243 0300 	movw	r3, #12288	@ 0x3000
    3cfa:	f2c5 0306 	movt	r3, #20486	@ 0x5006
    3cfe:	429c      	cmp	r4, r3
    3d00:	d100      	bne.n	3d04 <SPI_Open+0x98>
    3d02:	e107      	b.n	3f14 <SPI_Open+0x2a8>
    3d04:	2006      	movs	r0, #6
    3d06:	f2ca 60c0 	movt	r0, #42688	@ 0xa6c0
    3d0a:	f7ff fc21 	bl	3550 <CLK_GetModuleClockSource>
    3d0e:	0300      	lsls	r0, r0, #12
    3d10:	2800      	cmp	r0, #0
    3d12:	d000      	beq.n	3d16 <SPI_Open+0xaa>
    3d14:	e19e      	b.n	4054 <SPI_Open+0x3e8>
    3d16:	f641 3500 	movw	r5, #6912	@ 0x1b00
    3d1a:	f2c0 05b7 	movt	r5, #183	@ 0xb7
    3d1e:	9b08      	ldr	r3, [sp, #32]
    3d20:	4598      	cmp	r8, r3
    3d22:	d903      	bls.n	3d2c <SPI_Open+0xc0>
    3d24:	9b08      	ldr	r3, [sp, #32]
    3d26:	429d      	cmp	r5, r3
    3d28:	d900      	bls.n	3d2c <SPI_Open+0xc0>
    3d2a:	e0b1      	b.n	3e90 <SPI_Open+0x224>
    3d2c:	2300      	movs	r3, #0
    3d2e:	6063      	str	r3, [r4, #4]
    3d30:	0028      	movs	r0, r5
    3d32:	bcc0      	pop	{r6, r7}
    3d34:	46b9      	mov	r9, r7
    3d36:	46b0      	mov	r8, r6
    3d38:	bdf8      	pop	{r3, r4, r5, r6, r7, pc}
    3d3a:	f7fc fc8f 	bl	65c <__PC>
    3d3e:	00c0      	lsls	r0, r0, #3
    3d40:	d4b6      	bmi.n	3cb0 <SPI_Open+0x44>
    3d42:	f241 0300 	movw	r3, #4096	@ 0x1000
    3d46:	f2c4 0306 	movt	r3, #16390	@ 0x4006
    3d4a:	429c      	cmp	r4, r3
    3d4c:	d100      	bne.n	3d50 <SPI_Open+0xe4>
    3d4e:	e161      	b.n	4014 <SPI_Open+0x3a8>
    3d50:	f241 0300 	movw	r3, #4096	@ 0x1000
    3d54:	f2c5 0306 	movt	r3, #20486	@ 0x5006
    3d58:	429c      	cmp	r4, r3
    3d5a:	d100      	bne.n	3d5e <SPI_Open+0xf2>
    3d5c:	e15a      	b.n	4014 <SPI_Open+0x3a8>
    3d5e:	f242 0300 	movw	r3, #8192	@ 0x2000
    3d62:	f2c4 0306 	movt	r3, #16390	@ 0x4006
    3d66:	429c      	cmp	r4, r3
    3d68:	d100      	bne.n	3d6c <SPI_Open+0x100>
    3d6a:	e194      	b.n	4096 <SPI_Open+0x42a>
    3d6c:	f242 0300 	movw	r3, #8192	@ 0x2000
    3d70:	f2c5 0306 	movt	r3, #20486	@ 0x5006
    3d74:	429c      	cmp	r4, r3
    3d76:	d100      	bne.n	3d7a <SPI_Open+0x10e>
    3d78:	e18d      	b.n	4096 <SPI_Open+0x42a>
    3d7a:	f243 0300 	movw	r3, #12288	@ 0x3000
    3d7e:	f2c4 0306 	movt	r3, #16390	@ 0x4006
    3d82:	429c      	cmp	r4, r3
    3d84:	d100      	bne.n	3d88 <SPI_Open+0x11c>
    3d86:	e1e5      	b.n	4154 <SPI_Open+0x4e8>
    3d88:	f243 0300 	movw	r3, #12288	@ 0x3000
    3d8c:	f240 2200 	movw	r2, #512	@ 0x200
    3d90:	f2c5 0306 	movt	r3, #20486	@ 0x5006
    3d94:	f2c4 0200 	movt	r2, #16384	@ 0x4000
    3d98:	429c      	cmp	r4, r3
    3d9a:	d100      	bne.n	3d9e <SPI_Open+0x132>
    3d9c:	e0b3      	b.n	3f06 <SPI_Open+0x29a>
    3d9e:	6993      	ldr	r3, [r2, #24]
    3da0:	49d6      	ldr	r1, [pc, #856]	@ (40fc <SPI_Open+0x490>)
    3da2:	400b      	ands	r3, r1
    3da4:	f242 0100 	movw	r1, #8192	@ 0x2000
    3da8:	430b      	orrs	r3, r1
    3daa:	6193      	str	r3, [r2, #24]
    3dac:	e7aa      	b.n	3d04 <SPI_Open+0x98>
    3dae:	200d      	movs	r0, #13
    3db0:	f2c6 6040 	movt	r0, #26176	@ 0x6640
    3db4:	f7ff fbcc 	bl	3550 <CLK_GetModuleClockSource>
    3db8:	0100      	lsls	r0, r0, #4
    3dba:	2800      	cmp	r0, #0
    3dbc:	d0ab      	beq.n	3d16 <SPI_Open+0xaa>
    3dbe:	200d      	movs	r0, #13
    3dc0:	f2c6 6040 	movt	r0, #26176	@ 0x6640
    3dc4:	f7ff fbc4 	bl	3550 <CLK_GetModuleClockSource>
    3dc8:	0100      	lsls	r0, r0, #4
    3dca:	2810      	cmp	r0, #16
    3dcc:	d100      	bne.n	3dd0 <SPI_Open+0x164>
    3dce:	e0e1      	b.n	3f94 <SPI_Open+0x328>
    3dd0:	200d      	movs	r0, #13
    3dd2:	f2c6 6040 	movt	r0, #26176	@ 0x6640
    3dd6:	f7ff fbbb 	bl	3550 <CLK_GetModuleClockSource>
    3dda:	0100      	lsls	r0, r0, #4
    3ddc:	2820      	cmp	r0, #32
    3dde:	d19a      	bne.n	3d16 <SPI_Open+0xaa>
    3de0:	e0b6      	b.n	3f50 <SPI_Open+0x2e4>
    3de2:	2201      	movs	r2, #1
    3de4:	2300      	movs	r3, #0
    3de6:	433e      	orrs	r6, r7
    3de8:	4316      	orrs	r6, r2
    3dea:	60a3      	str	r3, [r4, #8]
    3dec:	6026      	str	r6, [r4, #0]
    3dee:	6063      	str	r3, [r4, #4]
    3df0:	f7fc fc34 	bl	65c <__PC>
    3df4:	f241 0300 	movw	r3, #4096	@ 0x1000
    3df8:	f2c4 0306 	movt	r3, #16390	@ 0x4006
    3dfc:	00c0      	lsls	r0, r0, #3
    3dfe:	d552      	bpl.n	3ea6 <SPI_Open+0x23a>
    3e00:	429c      	cmp	r4, r3
    3e02:	d100      	bne.n	3e06 <SPI_Open+0x19a>
    3e04:	e0ea      	b.n	3fdc <SPI_Open+0x370>
    3e06:	f241 0300 	movw	r3, #4096	@ 0x1000
    3e0a:	f2c5 0306 	movt	r3, #20486	@ 0x5006
    3e0e:	429c      	cmp	r4, r3
    3e10:	d100      	bne.n	3e14 <SPI_Open+0x1a8>
    3e12:	e0e3      	b.n	3fdc <SPI_Open+0x370>
    3e14:	f242 0300 	movw	r3, #8192	@ 0x2000
    3e18:	f2c4 0306 	movt	r3, #16390	@ 0x4006
    3e1c:	429c      	cmp	r4, r3
    3e1e:	d100      	bne.n	3e22 <SPI_Open+0x1b6>
    3e20:	e170      	b.n	4104 <SPI_Open+0x498>
    3e22:	f242 0300 	movw	r3, #8192	@ 0x2000
    3e26:	f2c5 0306 	movt	r3, #20486	@ 0x5006
    3e2a:	429c      	cmp	r4, r3
    3e2c:	d100      	bne.n	3e30 <SPI_Open+0x1c4>
    3e2e:	e169      	b.n	4104 <SPI_Open+0x498>
    3e30:	f243 0300 	movw	r3, #12288	@ 0x3000
    3e34:	f2c4 0306 	movt	r3, #16390	@ 0x4006
    3e38:	429c      	cmp	r4, r3
    3e3a:	d100      	bne.n	3e3e <SPI_Open+0x1d2>
    3e3c:	e13e      	b.n	40bc <SPI_Open+0x450>
    3e3e:	f243 0300 	movw	r3, #12288	@ 0x3000
    3e42:	f2c5 0306 	movt	r3, #20486	@ 0x5006
    3e46:	429c      	cmp	r4, r3
    3e48:	d100      	bne.n	3e4c <SPI_Open+0x1e0>
    3e4a:	e137      	b.n	40bc <SPI_Open+0x450>
    3e4c:	2006      	movs	r0, #6
    3e4e:	f2ca 60c0 	movt	r0, #42688	@ 0xa6c0
    3e52:	f7ff fb7d 	bl	3550 <CLK_GetModuleClockSource>
    3e56:	0300      	lsls	r0, r0, #12
    3e58:	b1a8      	cbz	r0, 3e86 <SPI_Open+0x21a>
    3e5a:	2006      	movs	r0, #6
    3e5c:	f2ca 60c0 	movt	r0, #42688	@ 0xa6c0
    3e60:	f7ff fb76 	bl	3550 <CLK_GetModuleClockSource>
    3e64:	f241 0300 	movw	r3, #4096	@ 0x1000
    3e68:	0300      	lsls	r0, r0, #12
    3e6a:	4298      	cmp	r0, r3
    3e6c:	d100      	bne.n	3e70 <SPI_Open+0x204>
    3e6e:	e164      	b.n	413a <SPI_Open+0x4ce>
    3e70:	2006      	movs	r0, #6
    3e72:	f2ca 60c0 	movt	r0, #42688	@ 0xa6c0
    3e76:	f7ff fb6b 	bl	3550 <CLK_GetModuleClockSource>
    3e7a:	f242 0300 	movw	r3, #8192	@ 0x2000
    3e7e:	0300      	lsls	r0, r0, #12
    3e80:	4298      	cmp	r0, r3
    3e82:	d100      	bne.n	3e86 <SPI_Open+0x21a>
    3e84:	e754      	b.n	3d30 <SPI_Open+0xc4>
    3e86:	f641 3500 	movw	r5, #6912	@ 0x1b00
    3e8a:	f2c0 05b7 	movt	r5, #183	@ 0xb7
    3e8e:	e74f      	b.n	3d30 <SPI_Open+0xc4>
    3e90:	9b08      	ldr	r3, [sp, #32]
    3e92:	2b00      	cmp	r3, #0
    3e94:	d000      	beq.n	3e98 <SPI_Open+0x22c>
    3e96:	e08d      	b.n	3fb4 <SPI_Open+0x348>
    3e98:	f240 12ff 	movw	r2, #511	@ 0x1ff
    3e9c:	6863      	ldr	r3, [r4, #4]
    3e9e:	0a6d      	lsrs	r5, r5, #9
    3ea0:	4313      	orrs	r3, r2
    3ea2:	6063      	str	r3, [r4, #4]
    3ea4:	e744      	b.n	3d30 <SPI_Open+0xc4>
    3ea6:	429c      	cmp	r4, r3
    3ea8:	d078      	beq.n	3f9c <SPI_Open+0x330>
    3eaa:	f241 0300 	movw	r3, #4096	@ 0x1000
    3eae:	f2c5 0306 	movt	r3, #20486	@ 0x5006
    3eb2:	429c      	cmp	r4, r3
    3eb4:	d072      	beq.n	3f9c <SPI_Open+0x330>
    3eb6:	f242 0300 	movw	r3, #8192	@ 0x2000
    3eba:	f2c4 0306 	movt	r3, #16390	@ 0x4006
    3ebe:	429c      	cmp	r4, r3
    3ec0:	d100      	bne.n	3ec4 <SPI_Open+0x258>
    3ec2:	e0dd      	b.n	4080 <SPI_Open+0x414>
    3ec4:	f242 0300 	movw	r3, #8192	@ 0x2000
    3ec8:	f2c5 0306 	movt	r3, #20486	@ 0x5006
    3ecc:	429c      	cmp	r4, r3
    3ece:	d100      	bne.n	3ed2 <SPI_Open+0x266>
    3ed0:	e0d6      	b.n	4080 <SPI_Open+0x414>
    3ed2:	f243 0300 	movw	r3, #12288	@ 0x3000
    3ed6:	f240 2200 	movw	r2, #512	@ 0x200
    3eda:	f2c4 0306 	movt	r3, #16390	@ 0x4006
    3ede:	f2c4 0200 	movt	r2, #16384	@ 0x4000
    3ee2:	429c      	cmp	r4, r3
    3ee4:	d100      	bne.n	3ee8 <SPI_Open+0x27c>
    3ee6:	e12c      	b.n	4142 <SPI_Open+0x4d6>
    3ee8:	f243 0300 	movw	r3, #12288	@ 0x3000
    3eec:	f2c5 0306 	movt	r3, #20486	@ 0x5006
    3ef0:	429c      	cmp	r4, r3
    3ef2:	d100      	bne.n	3ef6 <SPI_Open+0x28a>
    3ef4:	e125      	b.n	4142 <SPI_Open+0x4d6>
    3ef6:	6993      	ldr	r3, [r2, #24]
    3ef8:	4980      	ldr	r1, [pc, #512]	@ (40fc <SPI_Open+0x490>)
    3efa:	400b      	ands	r3, r1
    3efc:	f242 0100 	movw	r1, #8192	@ 0x2000
    3f00:	430b      	orrs	r3, r1
    3f02:	6193      	str	r3, [r2, #24]
    3f04:	e714      	b.n	3d30 <SPI_Open+0xc4>
    3f06:	6993      	ldr	r3, [r2, #24]
    3f08:	497d      	ldr	r1, [pc, #500]	@ (4100 <SPI_Open+0x494>)
    3f0a:	400b      	ands	r3, r1
    3f0c:	f640 0100 	movw	r1, #2048	@ 0x800
    3f10:	430b      	orrs	r3, r1
    3f12:	6193      	str	r3, [r2, #24]
    3f14:	200f      	movs	r0, #15
    3f16:	f2c6 60a0 	movt	r0, #26272	@ 0x66a0
    3f1a:	f7ff fb19 	bl	3550 <CLK_GetModuleClockSource>
    3f1e:	0280      	lsls	r0, r0, #10
    3f20:	2800      	cmp	r0, #0
    3f22:	d100      	bne.n	3f26 <SPI_Open+0x2ba>
    3f24:	e6f7      	b.n	3d16 <SPI_Open+0xaa>
    3f26:	200f      	movs	r0, #15
    3f28:	f2c6 60a0 	movt	r0, #26272	@ 0x66a0
    3f2c:	f7ff fb10 	bl	3550 <CLK_GetModuleClockSource>
    3f30:	f240 4300 	movw	r3, #1024	@ 0x400
    3f34:	0280      	lsls	r0, r0, #10
    3f36:	4298      	cmp	r0, r3
    3f38:	d02c      	beq.n	3f94 <SPI_Open+0x328>
    3f3a:	200f      	movs	r0, #15
    3f3c:	f2c6 60a0 	movt	r0, #26272	@ 0x66a0
    3f40:	f7ff fb06 	bl	3550 <CLK_GetModuleClockSource>
    3f44:	f640 0300 	movw	r3, #2048	@ 0x800
    3f48:	0280      	lsls	r0, r0, #10
    3f4a:	4298      	cmp	r0, r3
    3f4c:	d000      	beq.n	3f50 <SPI_Open+0x2e4>
    3f4e:	e6e2      	b.n	3d16 <SPI_Open+0xaa>
    3f50:	f7fe ff3c 	bl	2dcc <CLK_GetPCLK1Freq>
    3f54:	0005      	movs	r5, r0
    3f56:	e6e2      	b.n	3d1e <SPI_Open+0xb2>
    3f58:	200e      	movs	r0, #14
    3f5a:	f2c6 6060 	movt	r0, #26208	@ 0x6660
    3f5e:	f7ff faf7 	bl	3550 <CLK_GetModuleClockSource>
    3f62:	0180      	lsls	r0, r0, #6
    3f64:	2800      	cmp	r0, #0
    3f66:	d100      	bne.n	3f6a <SPI_Open+0x2fe>
    3f68:	e6d5      	b.n	3d16 <SPI_Open+0xaa>
    3f6a:	200e      	movs	r0, #14
    3f6c:	f2c6 6060 	movt	r0, #26208	@ 0x6660
    3f70:	f7ff faee 	bl	3550 <CLK_GetModuleClockSource>
    3f74:	0180      	lsls	r0, r0, #6
    3f76:	2840      	cmp	r0, #64	@ 0x40
    3f78:	d00c      	beq.n	3f94 <SPI_Open+0x328>
    3f7a:	200e      	movs	r0, #14
    3f7c:	f2c6 6060 	movt	r0, #26208	@ 0x6660
    3f80:	f7ff fae6 	bl	3550 <CLK_GetModuleClockSource>
    3f84:	0180      	lsls	r0, r0, #6
    3f86:	2880      	cmp	r0, #128	@ 0x80
    3f88:	d000      	beq.n	3f8c <SPI_Open+0x320>
    3f8a:	e6c4      	b.n	3d16 <SPI_Open+0xaa>
    3f8c:	f7fe ff14 	bl	2db8 <CLK_GetPCLK0Freq>
    3f90:	0005      	movs	r5, r0
    3f92:	e6c4      	b.n	3d1e <SPI_Open+0xb2>
    3f94:	f7ff fab0 	bl	34f8 <CLK_GetPLLClockFreq>
    3f98:	0005      	movs	r5, r0
    3f9a:	e6c0      	b.n	3d1e <SPI_Open+0xb2>
    3f9c:	f240 2200 	movw	r2, #512	@ 0x200
    3fa0:	2130      	movs	r1, #48	@ 0x30
    3fa2:	f2c4 0200 	movt	r2, #16384	@ 0x4000
    3fa6:	6993      	ldr	r3, [r2, #24]
    3fa8:	438b      	bics	r3, r1
    3faa:	3910      	subs	r1, #16
    3fac:	430b      	orrs	r3, r1
    3fae:	6193      	str	r3, [r2, #24]
    3fb0:	464d      	mov	r5, r9
    3fb2:	e6bd      	b.n	3d30 <SPI_Open+0xc4>
    3fb4:	00ab      	lsls	r3, r5, #2
    3fb6:	9a08      	ldr	r2, [sp, #32]
    3fb8:	195b      	adds	r3, r3, r5
    3fba:	005b      	lsls	r3, r3, #1
    3fbc:	fbb3 f3f2 	udiv	r3, r3, r2
    3fc0:	220a      	movs	r2, #10
    3fc2:	3305      	adds	r3, #5
    3fc4:	fbb3 f3f2 	udiv	r3, r3, r2
    3fc8:	32f6      	adds	r2, #246	@ 0xf6
    3fca:	1e59      	subs	r1, r3, #1
    3fcc:	32ff      	adds	r2, #255	@ 0xff
    3fce:	4291      	cmp	r1, r2
    3fd0:	d938      	bls.n	4044 <SPI_Open+0x3d8>
    3fd2:	6863      	ldr	r3, [r4, #4]
    3fd4:	0a6d      	lsrs	r5, r5, #9
    3fd6:	4313      	orrs	r3, r2
    3fd8:	6063      	str	r3, [r4, #4]
    3fda:	e6a9      	b.n	3d30 <SPI_Open+0xc4>
    3fdc:	200d      	movs	r0, #13
    3fde:	f2c6 6040 	movt	r0, #26176	@ 0x6640
    3fe2:	f7ff fab5 	bl	3550 <CLK_GetModuleClockSource>
    3fe6:	0100      	lsls	r0, r0, #4
    3fe8:	2800      	cmp	r0, #0
    3fea:	d100      	bne.n	3fee <SPI_Open+0x382>
    3fec:	e74b      	b.n	3e86 <SPI_Open+0x21a>
    3fee:	200d      	movs	r0, #13
    3ff0:	f2c6 6040 	movt	r0, #26176	@ 0x6640
    3ff4:	f7ff faac 	bl	3550 <CLK_GetModuleClockSource>
    3ff8:	0100      	lsls	r0, r0, #4
    3ffa:	2810      	cmp	r0, #16
    3ffc:	d100      	bne.n	4000 <SPI_Open+0x394>
    3ffe:	e09c      	b.n	413a <SPI_Open+0x4ce>
    4000:	200d      	movs	r0, #13
    4002:	f2c6 6040 	movt	r0, #26176	@ 0x6640
    4006:	f7ff faa3 	bl	3550 <CLK_GetModuleClockSource>
    400a:	0100      	lsls	r0, r0, #4
    400c:	2820      	cmp	r0, #32
    400e:	d000      	beq.n	4012 <SPI_Open+0x3a6>
    4010:	e739      	b.n	3e86 <SPI_Open+0x21a>
    4012:	e7cd      	b.n	3fb0 <SPI_Open+0x344>
    4014:	f240 2200 	movw	r2, #512	@ 0x200
    4018:	2130      	movs	r1, #48	@ 0x30
    401a:	200d      	movs	r0, #13
    401c:	f2c4 0200 	movt	r2, #16384	@ 0x4000
    4020:	6993      	ldr	r3, [r2, #24]
    4022:	f2c6 6040 	movt	r0, #26176	@ 0x6640
    4026:	438b      	bics	r3, r1
    4028:	3910      	subs	r1, #16
    402a:	430b      	orrs	r3, r1
    402c:	6193      	str	r3, [r2, #24]
    402e:	f7ff fa8f 	bl	3550 <CLK_GetModuleClockSource>
    4032:	0100      	lsls	r0, r0, #4
    4034:	2800      	cmp	r0, #0
    4036:	d000      	beq.n	403a <SPI_Open+0x3ce>
    4038:	e6c1      	b.n	3dbe <SPI_Open+0x152>
    403a:	f641 3500 	movw	r5, #6912	@ 0x1b00
    403e:	f2c0 05b7 	movt	r5, #183	@ 0xb7
    4042:	e673      	b.n	3d2c <SPI_Open+0xc0>
    4044:	6862      	ldr	r2, [r4, #4]
    4046:	fbb5 f5f3 	udiv	r5, r5, r3
    404a:	0a52      	lsrs	r2, r2, #9
    404c:	0252      	lsls	r2, r2, #9
    404e:	430a      	orrs	r2, r1
    4050:	6062      	str	r2, [r4, #4]
    4052:	e66d      	b.n	3d30 <SPI_Open+0xc4>
    4054:	2006      	movs	r0, #6
    4056:	f2ca 60c0 	movt	r0, #42688	@ 0xa6c0
    405a:	f7ff fa79 	bl	3550 <CLK_GetModuleClockSource>
    405e:	f241 0300 	movw	r3, #4096	@ 0x1000
    4062:	0300      	lsls	r0, r0, #12
    4064:	4298      	cmp	r0, r3
    4066:	d095      	beq.n	3f94 <SPI_Open+0x328>
    4068:	2006      	movs	r0, #6
    406a:	f2ca 60c0 	movt	r0, #42688	@ 0xa6c0
    406e:	f7ff fa6f 	bl	3550 <CLK_GetModuleClockSource>
    4072:	f242 0300 	movw	r3, #8192	@ 0x2000
    4076:	0300      	lsls	r0, r0, #12
    4078:	4298      	cmp	r0, r3
    407a:	d000      	beq.n	407e <SPI_Open+0x412>
    407c:	e64b      	b.n	3d16 <SPI_Open+0xaa>
    407e:	e785      	b.n	3f8c <SPI_Open+0x320>
    4080:	f240 2200 	movw	r2, #512	@ 0x200
    4084:	21c0      	movs	r1, #192	@ 0xc0
    4086:	f2c4 0200 	movt	r2, #16384	@ 0x4000
    408a:	6993      	ldr	r3, [r2, #24]
    408c:	438b      	bics	r3, r1
    408e:	3940      	subs	r1, #64	@ 0x40
    4090:	430b      	orrs	r3, r1
    4092:	6193      	str	r3, [r2, #24]
    4094:	e64c      	b.n	3d30 <SPI_Open+0xc4>
    4096:	f240 2200 	movw	r2, #512	@ 0x200
    409a:	21c0      	movs	r1, #192	@ 0xc0
    409c:	200e      	movs	r0, #14
    409e:	f2c4 0200 	movt	r2, #16384	@ 0x4000
    40a2:	6993      	ldr	r3, [r2, #24]
    40a4:	f2c6 6060 	movt	r0, #26208	@ 0x6660
    40a8:	438b      	bics	r3, r1
    40aa:	3940      	subs	r1, #64	@ 0x40
    40ac:	430b      	orrs	r3, r1
    40ae:	6193      	str	r3, [r2, #24]
    40b0:	f7ff fa4e 	bl	3550 <CLK_GetModuleClockSource>
    40b4:	0180      	lsls	r0, r0, #6
    40b6:	2800      	cmp	r0, #0
    40b8:	d0bf      	beq.n	403a <SPI_Open+0x3ce>
    40ba:	e756      	b.n	3f6a <SPI_Open+0x2fe>
    40bc:	200f      	movs	r0, #15
    40be:	f2c6 60a0 	movt	r0, #26272	@ 0x66a0
    40c2:	f7ff fa45 	bl	3550 <CLK_GetModuleClockSource>
    40c6:	0280      	lsls	r0, r0, #10
    40c8:	2800      	cmp	r0, #0
    40ca:	d100      	bne.n	40ce <SPI_Open+0x462>
    40cc:	e6db      	b.n	3e86 <SPI_Open+0x21a>
    40ce:	200f      	movs	r0, #15
    40d0:	f2c6 60a0 	movt	r0, #26272	@ 0x66a0
    40d4:	f7ff fa3c 	bl	3550 <CLK_GetModuleClockSource>
    40d8:	f240 4300 	movw	r3, #1024	@ 0x400
    40dc:	0280      	lsls	r0, r0, #10
    40de:	4298      	cmp	r0, r3
    40e0:	d02b      	beq.n	413a <SPI_Open+0x4ce>
    40e2:	200f      	movs	r0, #15
    40e4:	f2c6 60a0 	movt	r0, #26272	@ 0x66a0
    40e8:	f7ff fa32 	bl	3550 <CLK_GetModuleClockSource>
    40ec:	f640 0300 	movw	r3, #2048	@ 0x800
    40f0:	0280      	lsls	r0, r0, #10
    40f2:	4298      	cmp	r0, r3
    40f4:	d000      	beq.n	40f8 <SPI_Open+0x48c>
    40f6:	e6c6      	b.n	3e86 <SPI_Open+0x21a>
    40f8:	e75a      	b.n	3fb0 <SPI_Open+0x344>
    40fa:	46c0      	nop			@ (mov r8, r8)
    40fc:	ffffcfff 			@ <UNDEFINED> instruction: ffffcfff
    4100:	fffff3ff 			@ <UNDEFINED> instruction: fffff3ff
    4104:	200e      	movs	r0, #14
    4106:	f2c6 6060 	movt	r0, #26208	@ 0x6660
    410a:	f7ff fa21 	bl	3550 <CLK_GetModuleClockSource>
    410e:	0180      	lsls	r0, r0, #6
    4110:	2800      	cmp	r0, #0
    4112:	d100      	bne.n	4116 <SPI_Open+0x4aa>
    4114:	e6b7      	b.n	3e86 <SPI_Open+0x21a>
    4116:	200e      	movs	r0, #14
    4118:	f2c6 6060 	movt	r0, #26208	@ 0x6660
    411c:	f7ff fa18 	bl	3550 <CLK_GetModuleClockSource>
    4120:	0180      	lsls	r0, r0, #6
    4122:	2840      	cmp	r0, #64	@ 0x40
    4124:	d009      	beq.n	413a <SPI_Open+0x4ce>
    4126:	200e      	movs	r0, #14
    4128:	f2c6 6060 	movt	r0, #26208	@ 0x6660
    412c:	f7ff fa10 	bl	3550 <CLK_GetModuleClockSource>
    4130:	0180      	lsls	r0, r0, #6
    4132:	2880      	cmp	r0, #128	@ 0x80
    4134:	d000      	beq.n	4138 <SPI_Open+0x4cc>
    4136:	e6a6      	b.n	3e86 <SPI_Open+0x21a>
    4138:	e5fa      	b.n	3d30 <SPI_Open+0xc4>
    413a:	f7ff f9dd 	bl	34f8 <CLK_GetPLLClockFreq>
    413e:	0005      	movs	r5, r0
    4140:	e5f6      	b.n	3d30 <SPI_Open+0xc4>
    4142:	6993      	ldr	r3, [r2, #24]
    4144:	490e      	ldr	r1, [pc, #56]	@ (4180 <SPI_Open+0x514>)
    4146:	464d      	mov	r5, r9
    4148:	400b      	ands	r3, r1
    414a:	f640 0100 	movw	r1, #2048	@ 0x800
    414e:	430b      	orrs	r3, r1
    4150:	6193      	str	r3, [r2, #24]
    4152:	e5ed      	b.n	3d30 <SPI_Open+0xc4>
    4154:	f240 2200 	movw	r2, #512	@ 0x200
    4158:	f2c4 0200 	movt	r2, #16384	@ 0x4000
    415c:	6993      	ldr	r3, [r2, #24]
    415e:	4908      	ldr	r1, [pc, #32]	@ (4180 <SPI_Open+0x514>)
    4160:	200f      	movs	r0, #15
    4162:	400b      	ands	r3, r1
    4164:	f640 0100 	movw	r1, #2048	@ 0x800
    4168:	430b      	orrs	r3, r1
    416a:	6193      	str	r3, [r2, #24]
    416c:	f2c6 60a0 	movt	r0, #26272	@ 0x66a0
    4170:	f7ff f9ee 	bl	3550 <CLK_GetModuleClockSource>
    4174:	0280      	lsls	r0, r0, #10
    4176:	2800      	cmp	r0, #0
    4178:	d100      	bne.n	417c <SPI_Open+0x510>
    417a:	e75e      	b.n	403a <SPI_Open+0x3ce>
    417c:	e6d3      	b.n	3f26 <SPI_Open+0x2ba>
    417e:	46c0      	nop			@ (mov r8, r8)
    4180:	fffff3ff 			@ <UNDEFINED> instruction: fffff3ff

00004184 <SPI_Close>:
    4184:	2201      	movs	r2, #1
    4186:	6803      	ldr	r3, [r0, #0]
    4188:	4393      	bics	r3, r2
    418a:	6003      	str	r3, [r0, #0]
    418c:	4770      	bx	lr
    418e:	46c0      	nop			@ (mov r8, r8)

00004190 <SPI_ClearRxFIFO>:
    4190:	f240 1200 	movw	r2, #256	@ 0x100
    4194:	6903      	ldr	r3, [r0, #16]
    4196:	4313      	orrs	r3, r2
    4198:	6103      	str	r3, [r0, #16]
    419a:	4770      	bx	lr

0000419c <SPI_DisableAutoSS>:
    419c:	2209      	movs	r2, #9
    419e:	6883      	ldr	r3, [r0, #8]
    41a0:	4393      	bics	r3, r2
    41a2:	6083      	str	r3, [r0, #8]
    41a4:	4770      	bx	lr
    41a6:	46c0      	nop			@ (mov r8, r8)

000041a8 <SYS_ResetChip>:
    41a8:	2280      	movs	r2, #128	@ 0x80
    41aa:	2101      	movs	r1, #1
    41ac:	05d2      	lsls	r2, r2, #23
    41ae:	6893      	ldr	r3, [r2, #8]
    41b0:	430b      	orrs	r3, r1
    41b2:	6093      	str	r3, [r2, #8]
    41b4:	4770      	bx	lr
    41b6:	46c0      	nop			@ (mov r8, r8)

000041b8 <SYS_ResetModule>:
    41b8:	2301      	movs	r3, #1
    41ba:	0202      	lsls	r2, r0, #8
    41bc:	0a12      	lsrs	r2, r2, #8
    41be:	4093      	lsls	r3, r2
    41c0:	2208      	movs	r2, #8
    41c2:	f2c4 0200 	movt	r2, #16384	@ 0x4000
    41c6:	4694      	mov	ip, r2
    41c8:	0e00      	lsrs	r0, r0, #24
    41ca:	4460      	add	r0, ip
    41cc:	6802      	ldr	r2, [r0, #0]
    41ce:	431a      	orrs	r2, r3
    41d0:	6002      	str	r2, [r0, #0]
    41d2:	6802      	ldr	r2, [r0, #0]
    41d4:	439a      	bics	r2, r3
    41d6:	6002      	str	r2, [r0, #0]
    41d8:	4770      	bx	lr
    41da:	46c0      	nop			@ (mov r8, r8)

000041dc <TIMER_Close>:
    41dc:	2300      	movs	r3, #0
    41de:	6003      	str	r3, [r0, #0]
    41e0:	6143      	str	r3, [r0, #20]
    41e2:	4770      	bx	lr

000041e4 <UART_Close>:
    41e4:	2300      	movs	r3, #0
    41e6:	6043      	str	r3, [r0, #4]
    41e8:	4770      	bx	lr
    41ea:	46c0      	nop			@ (mov r8, r8)

000041ec <UART_EnableInt>:
    41ec:	6843      	ldr	r3, [r0, #4]
    41ee:	430b      	orrs	r3, r1
    41f0:	6043      	str	r3, [r0, #4]
    41f2:	4770      	bx	lr

000041f4 <UART_Open>:
    41f4:	b5f0      	push	{r4, r5, r6, r7, lr}
    41f6:	46c6      	mov	lr, r8
    41f8:	b500      	push	{lr}
    41fa:	f644 7394 	movw	r3, #20372	@ 0x4f94
    41fe:	b088      	sub	sp, #32
    4200:	466a      	mov	r2, sp
    4202:	f2c0 0300 	movt	r3, #0
    4206:	0004      	movs	r4, r0
    4208:	000f      	movs	r7, r1
    420a:	cb43      	ldmia	r3!, {r0, r1, r6}
    420c:	c243      	stmia	r2!, {r0, r1, r6}
    420e:	cb43      	ldmia	r3!, {r0, r1, r6}
    4210:	c243      	stmia	r2!, {r0, r1, r6}
    4212:	cb03      	ldmia	r3!, {r0, r1}
    4214:	c203      	stmia	r2!, {r0, r1}
    4216:	2300      	movs	r3, #0
    4218:	f2c5 0307 	movt	r3, #20487	@ 0x5007
    421c:	466d      	mov	r5, sp
    421e:	429c      	cmp	r4, r3
    4220:	d01c      	beq.n	425c <UART_Open+0x68>
    4222:	d82e      	bhi.n	4282 <UART_Open+0x8e>
    4224:	f243 0300 	movw	r3, #12288	@ 0x3000
    4228:	f2c4 0307 	movt	r3, #16391	@ 0x4007
    422c:	429c      	cmp	r4, r3
    422e:	d100      	bne.n	4232 <UART_Open+0x3e>
    4230:	e0da      	b.n	43e8 <UART_Open+0x1f4>
    4232:	d900      	bls.n	4236 <UART_Open+0x42>
    4234:	e0b8      	b.n	43a8 <UART_Open+0x1b4>
    4236:	f241 0300 	movw	r3, #4096	@ 0x1000
    423a:	f2c4 0307 	movt	r3, #16391	@ 0x4007
    423e:	429c      	cmp	r4, r3
    4240:	d100      	bne.n	4244 <UART_Open+0x50>
    4242:	e08d      	b.n	4360 <UART_Open+0x16c>
    4244:	f242 0300 	movw	r3, #8192	@ 0x2000
    4248:	f2c4 0307 	movt	r3, #16391	@ 0x4007
    424c:	429c      	cmp	r4, r3
    424e:	d100      	bne.n	4252 <UART_Open+0x5e>
    4250:	e071      	b.n	4336 <UART_Open+0x142>
    4252:	2300      	movs	r3, #0
    4254:	f2c4 0307 	movt	r3, #16391	@ 0x4007
    4258:	429c      	cmp	r4, r3
    425a:	d15c      	bne.n	4316 <UART_Open+0x122>
    425c:	f643 5010 	movw	r0, #15632	@ 0x3d10
    4260:	f6c6 7000 	movt	r0, #28416	@ 0x6f00
    4264:	f7ff f974 	bl	3550 <CLK_GetModuleClockSource>
    4268:	0006      	movs	r6, r0
    426a:	f643 5010 	movw	r0, #15632	@ 0x3d10
    426e:	f6c6 7000 	movt	r0, #28416	@ 0x6f00
    4272:	f7ff f9df 	bl	3634 <CLK_GetModuleClockDivider>
    4276:	4680      	mov	r8, r0
    4278:	2e04      	cmp	r6, #4
    427a:	d127      	bne.n	42cc <UART_Open+0xd8>
    427c:	f7fe fd9c 	bl	2db8 <CLK_GetPCLK0Freq>
    4280:	e080      	b.n	4384 <UART_Open+0x190>
    4282:	f243 0300 	movw	r3, #12288	@ 0x3000
    4286:	f2c5 0307 	movt	r3, #20487	@ 0x5007
    428a:	429c      	cmp	r4, r3
    428c:	d100      	bne.n	4290 <UART_Open+0x9c>
    428e:	e0ab      	b.n	43e8 <UART_Open+0x1f4>
    4290:	d945      	bls.n	431e <UART_Open+0x12a>
    4292:	f244 0300 	movw	r3, #16384	@ 0x4000
    4296:	f2c5 0307 	movt	r3, #20487	@ 0x5007
    429a:	429c      	cmp	r4, r3
    429c:	d100      	bne.n	42a0 <UART_Open+0xac>
    429e:	e091      	b.n	43c4 <UART_Open+0x1d0>
    42a0:	f245 0300 	movw	r3, #20480	@ 0x5000
    42a4:	f2c5 0307 	movt	r3, #20487	@ 0x5007
    42a8:	429c      	cmp	r4, r3
    42aa:	d134      	bne.n	4316 <UART_Open+0x122>
    42ac:	f643 5095 	movw	r0, #15765	@ 0x3d95
    42b0:	f6c7 70cc 	movt	r0, #32716	@ 0x7fcc
    42b4:	f7ff f94c 	bl	3550 <CLK_GetModuleClockSource>
    42b8:	0006      	movs	r6, r0
    42ba:	f643 5095 	movw	r0, #15765	@ 0x3d95
    42be:	f6c7 70cc 	movt	r0, #32716	@ 0x7fcc
    42c2:	f7ff f9b7 	bl	3634 <CLK_GetModuleClockDivider>
    42c6:	4680      	mov	r8, r0
    42c8:	2e04      	cmp	r6, #4
    42ca:	d059      	beq.n	4380 <UART_Open+0x18c>
    42cc:	2300      	movs	r3, #0
    42ce:	f64f 720f 	movw	r2, #65295	@ 0xff0f
    42d2:	6323      	str	r3, [r4, #48]	@ 0x30
    42d4:	3303      	adds	r3, #3
    42d6:	60e3      	str	r3, [r4, #12]
    42d8:	68a3      	ldr	r3, [r4, #8]
    42da:	f6cf 72f0 	movt	r2, #65520	@ 0xfff0
    42de:	4013      	ands	r3, r2
    42e0:	60a3      	str	r3, [r4, #8]
    42e2:	2e01      	cmp	r6, #1
    42e4:	d038      	beq.n	4358 <UART_Open+0x164>
    42e6:	b1b7      	cbz	r7, 4316 <UART_Open+0x122>
    42e8:	f240 0c01 	movw	ip, #1
    42ec:	00b6      	lsls	r6, r6, #2
    42ee:	59aa      	ldr	r2, [r5, r6]
    42f0:	44e0      	add	r8, ip
    42f2:	fbb2 f2f8 	udiv	r2, r2, r8
    42f6:	087b      	lsrs	r3, r7, #1
    42f8:	189b      	adds	r3, r3, r2
    42fa:	fbb3 f3f7 	udiv	r3, r3, r7
    42fe:	f64f 71ff 	movw	r1, #65535	@ 0xffff
    4302:	3b02      	subs	r3, #2
    4304:	428b      	cmp	r3, r1
    4306:	d94a      	bls.n	439e <UART_Open+0x1aa>
    4308:	00fb      	lsls	r3, r7, #3
    430a:	189b      	adds	r3, r3, r2
    430c:	fbb3 f3f7 	udiv	r3, r3, r7
    4310:	091b      	lsrs	r3, r3, #4
    4312:	3b02      	subs	r3, #2
    4314:	6263      	str	r3, [r4, #36]	@ 0x24
    4316:	b008      	add	sp, #32
    4318:	bc80      	pop	{r7}
    431a:	46b8      	mov	r8, r7
    431c:	bdf0      	pop	{r4, r5, r6, r7, pc}
    431e:	f241 0300 	movw	r3, #4096	@ 0x1000
    4322:	f2c5 0307 	movt	r3, #20487	@ 0x5007
    4326:	429c      	cmp	r4, r3
    4328:	d01a      	beq.n	4360 <UART_Open+0x16c>
    432a:	f242 0300 	movw	r3, #8192	@ 0x2000
    432e:	f2c5 0307 	movt	r3, #20487	@ 0x5007
    4332:	429c      	cmp	r4, r3
    4334:	d1ef      	bne.n	4316 <UART_Open+0x122>
    4336:	f643 4012 	movw	r0, #15378	@ 0x3c12
    433a:	f6c6 708c 	movt	r0, #28556	@ 0x6f8c
    433e:	f7ff f907 	bl	3550 <CLK_GetModuleClockSource>
    4342:	0006      	movs	r6, r0
    4344:	f643 4012 	movw	r0, #15378	@ 0x3c12
    4348:	f6c6 708c 	movt	r0, #28556	@ 0x6f8c
    434c:	f7ff f972 	bl	3634 <CLK_GetModuleClockDivider>
    4350:	4680      	mov	r8, r0
    4352:	2e04      	cmp	r6, #4
    4354:	d1ba      	bne.n	42cc <UART_Open+0xd8>
    4356:	e791      	b.n	427c <UART_Open+0x88>
    4358:	f7ff f8ce 	bl	34f8 <CLK_GetPLLClockFreq>
    435c:	6068      	str	r0, [r5, #4]
    435e:	e7c2      	b.n	42e6 <UART_Open+0xf2>
    4360:	f643 5091 	movw	r0, #15761	@ 0x3d91
    4364:	f6c6 7040 	movt	r0, #28480	@ 0x6f40
    4368:	f7ff f8f2 	bl	3550 <CLK_GetModuleClockSource>
    436c:	0006      	movs	r6, r0
    436e:	f643 5091 	movw	r0, #15761	@ 0x3d91
    4372:	f6c6 7040 	movt	r0, #28480	@ 0x6f40
    4376:	f7ff f95d 	bl	3634 <CLK_GetModuleClockDivider>
    437a:	4680      	mov	r8, r0
    437c:	2e04      	cmp	r6, #4
    437e:	d1a5      	bne.n	42cc <UART_Open+0xd8>
    4380:	f7fe fd24 	bl	2dcc <CLK_GetPCLK1Freq>
    4384:	2300      	movs	r3, #0
    4386:	f64f 720f 	movw	r2, #65295	@ 0xff0f
    438a:	6128      	str	r0, [r5, #16]
    438c:	6323      	str	r3, [r4, #48]	@ 0x30
    438e:	3303      	adds	r3, #3
    4390:	60e3      	str	r3, [r4, #12]
    4392:	68a3      	ldr	r3, [r4, #8]
    4394:	f6cf 72f0 	movt	r2, #65520	@ 0xfff0
    4398:	4013      	ands	r3, r2
    439a:	60a3      	str	r3, [r4, #8]
    439c:	e7a3      	b.n	42e6 <UART_Open+0xf2>
    439e:	22c0      	movs	r2, #192	@ 0xc0
    43a0:	0592      	lsls	r2, r2, #22
    43a2:	4313      	orrs	r3, r2
    43a4:	6263      	str	r3, [r4, #36]	@ 0x24
    43a6:	e7b6      	b.n	4316 <UART_Open+0x122>
    43a8:	f244 0300 	movw	r3, #16384	@ 0x4000
    43ac:	f2c4 0307 	movt	r3, #16391	@ 0x4007
    43b0:	429c      	cmp	r4, r3
    43b2:	d007      	beq.n	43c4 <UART_Open+0x1d0>
    43b4:	f245 0300 	movw	r3, #20480	@ 0x5000
    43b8:	f2c4 0307 	movt	r3, #16391	@ 0x4007
    43bc:	429c      	cmp	r4, r3
    43be:	d100      	bne.n	43c2 <UART_Open+0x1ce>
    43c0:	e774      	b.n	42ac <UART_Open+0xb8>
    43c2:	e7a8      	b.n	4316 <UART_Open+0x122>
    43c4:	f643 5014 	movw	r0, #15636	@ 0x3d14
    43c8:	f6c7 708c 	movt	r0, #32652	@ 0x7f8c
    43cc:	f7ff f8c0 	bl	3550 <CLK_GetModuleClockSource>
    43d0:	0006      	movs	r6, r0
    43d2:	f643 5014 	movw	r0, #15636	@ 0x3d14
    43d6:	f6c7 708c 	movt	r0, #32652	@ 0x7f8c
    43da:	f7ff f92b 	bl	3634 <CLK_GetModuleClockDivider>
    43de:	4680      	mov	r8, r0
    43e0:	2e04      	cmp	r6, #4
    43e2:	d000      	beq.n	43e6 <UART_Open+0x1f2>
    43e4:	e772      	b.n	42cc <UART_Open+0xd8>
    43e6:	e749      	b.n	427c <UART_Open+0x88>
    43e8:	f643 4093 	movw	r0, #15507	@ 0x3c93
    43ec:	f6c6 70cc 	movt	r0, #28620	@ 0x6fcc
    43f0:	f7ff f8ae 	bl	3550 <CLK_GetModuleClockSource>
    43f4:	0006      	movs	r6, r0
    43f6:	f643 4093 	movw	r0, #15507	@ 0x3c93
    43fa:	f6c6 70cc 	movt	r0, #28620	@ 0x6fcc
    43fe:	f7ff f919 	bl	3634 <CLK_GetModuleClockDivider>
    4402:	4680      	mov	r8, r0
    4404:	2e04      	cmp	r6, #4
    4406:	d000      	beq.n	440a <UART_Open+0x216>
    4408:	e760      	b.n	42cc <UART_Open+0xd8>
    440a:	e7b9      	b.n	4380 <UART_Open+0x18c>

0000440c <UART_Read>:
    440c:	b570      	push	{r4, r5, r6, lr}
    440e:	0004      	movs	r4, r0
    4410:	000e      	movs	r6, r1
    4412:	0015      	movs	r5, r2
    4414:	2000      	movs	r0, #0
    4416:	f244 0100 	movw	r1, #16384	@ 0x4000
    441a:	b162      	cbz	r2, 4436 <UART_Read+0x2a>
    441c:	2380      	movs	r3, #128	@ 0x80
    441e:	05db      	lsls	r3, r3, #23
    4420:	e001      	b.n	4426 <UART_Read+0x1a>
    4422:	3b01      	subs	r3, #1
    4424:	b13b      	cbz	r3, 4436 <UART_Read+0x2a>
    4426:	69a2      	ldr	r2, [r4, #24]
    4428:	4211      	tst	r1, r2
    442a:	d1fa      	bne.n	4422 <UART_Read+0x16>
    442c:	6823      	ldr	r3, [r4, #0]
    442e:	5433      	strb	r3, [r6, r0]
    4430:	3001      	adds	r0, #1
    4432:	4285      	cmp	r5, r0
    4434:	d1f2      	bne.n	441c <UART_Read+0x10>
    4436:	bd70      	pop	{r4, r5, r6, pc}

00004438 <UART_Write>:
    4438:	b570      	push	{r4, r5, r6, lr}
    443a:	000e      	movs	r6, r1
    443c:	2180      	movs	r1, #128	@ 0x80
    443e:	0004      	movs	r4, r0
    4440:	0015      	movs	r5, r2
    4442:	2000      	movs	r0, #0
    4444:	0409      	lsls	r1, r1, #16
    4446:	b162      	cbz	r2, 4462 <UART_Write+0x2a>
    4448:	2380      	movs	r3, #128	@ 0x80
    444a:	05db      	lsls	r3, r3, #23
    444c:	e001      	b.n	4452 <UART_Write+0x1a>
    444e:	3b01      	subs	r3, #1
    4450:	b13b      	cbz	r3, 4462 <UART_Write+0x2a>
    4452:	69a2      	ldr	r2, [r4, #24]
    4454:	420a      	tst	r2, r1
    4456:	d1fa      	bne.n	444e <UART_Write+0x16>
    4458:	5c33      	ldrb	r3, [r6, r0]
    445a:	3001      	adds	r0, #1
    445c:	6023      	str	r3, [r4, #0]
    445e:	4285      	cmp	r5, r0
    4460:	d1f2      	bne.n	4448 <UART_Write+0x10>
    4462:	bd70      	pop	{r4, r5, r6, pc}

00004464 <TRNG_IRQHandler>:
    4464:	f241 0368 	movw	r3, #4200	@ 0x1068
    4468:	b510      	push	{r4, lr}
    446a:	f2c2 0300 	movt	r3, #8192	@ 0x2000
    446e:	681b      	ldr	r3, [r3, #0]
    4470:	4798      	blx	r3
    4472:	bd10      	pop	{r4, pc}

00004474 <TMR0_IRQHandler>:
    4474:	f241 0364 	movw	r3, #4196	@ 0x1064
    4478:	b510      	push	{r4, lr}
    447a:	f2c2 0300 	movt	r3, #8192	@ 0x2000
    447e:	681b      	ldr	r3, [r3, #0]
    4480:	4798      	blx	r3
    4482:	bd10      	pop	{r4, pc}

00004484 <CRPT_IRQHandler>:
    4484:	f241 036c 	movw	r3, #4204	@ 0x106c
    4488:	b510      	push	{r4, lr}
    448a:	f2c2 0300 	movt	r3, #8192	@ 0x2000
    448e:	681b      	ldr	r3, [r3, #0]
    4490:	4798      	blx	r3
    4492:	bd10      	pop	{r4, pc}

00004494 <board_init>:
    4494:	b510      	push	{r4, lr}
    4496:	f7fc f8f9 	bl	68c <cpu_init>
    449a:	f7fe f833 	bl	2504 <uart_stdout_init>
    449e:	2000      	movs	r0, #0
    44a0:	f7fc fbee 	bl	c80 <spi_init>
    44a4:	f7ff f982 	bl	37ac <FMC_Open>
    44a8:	f240 30e8 	movw	r0, #1000	@ 0x3e8
    44ac:	f7fd f8d0 	bl	1650 <systick_init>
    44b0:	4801      	ldr	r0, [pc, #4]	@ (44b8 <board_init+0x24>)
    44b2:	f7fe fb9b 	bl	2bec <mtd_init>
    44b6:	bd10      	pop	{r4, pc}
    44b8:	20000c88 			@ <UNDEFINED> instruction: 20000c88

000044bc <board_fini>:
    44bc:	b510      	push	{r4, lr}
    44be:	2400      	movs	r4, #0
    44c0:	4b08      	ldr	r3, [pc, #32]	@ (44e4 <board_fini+0x28>)
    44c2:	0020      	movs	r0, r4
    44c4:	601c      	str	r4, [r3, #0]
    44c6:	f7fc fba1 	bl	c0c <timer_stop>
    44ca:	0020      	movs	r0, r4
    44cc:	f7fc fb7e 	bl	bcc <timer_fini>
    44d0:	f7ff f8d8 	bl	3684 <FMC_Close>
    44d4:	0020      	movs	r0, r4
    44d6:	f7fc fbb1 	bl	c3c <spi_fini>
    44da:	0020      	movs	r0, r4
    44dc:	f7fc fab0 	bl	a40 <uart_fini>
    44e0:	bd10      	pop	{r4, pc}
    44e2:	46c0      	nop			@ (mov r8, r8)
    44e4:	e000e010 			@ <UNDEFINED> instruction: e000e010

000044e8 <uart_axtool_dev_isr>:
    44e8:	2324      	movs	r3, #36	@ 0x24
    44ea:	b573      	push	{r0, r1, r4, r5, r6, lr}
    44ec:	4d0e      	ldr	r5, [pc, #56]	@ (4528 <uart_axtool_dev_isr+0x40>)
    44ee:	4c0f      	ldr	r4, [pc, #60]	@ (452c <uart_axtool_dev_isr+0x44>)
    44f0:	6828      	ldr	r0, [r5, #0]
    44f2:	4343      	muls	r3, r0
    44f4:	591b      	ldr	r3, [r3, r4]
    44f6:	69da      	ldr	r2, [r3, #28]
    44f8:	f241 1300 	movw	r3, #4352	@ 0x1100
    44fc:	421a      	tst	r2, r3
    44fe:	d009      	beq.n	4514 <uart_axtool_dev_isr+0x2c>
    4500:	466b      	mov	r3, sp
    4502:	1dde      	adds	r6, r3, #7
    4504:	0031      	movs	r1, r6
    4506:	2201      	movs	r2, #1
    4508:	f7fc fb24 	bl	b54 <uart_read>
    450c:	7831      	ldrb	r1, [r6, #0]
    450e:	4808      	ldr	r0, [pc, #32]	@ (4530 <uart_axtool_dev_isr+0x48>)
    4510:	f7fd f8b6 	bl	1680 <isrpipe_write_one>
    4514:	2324      	movs	r3, #36	@ 0x24
    4516:	682a      	ldr	r2, [r5, #0]
    4518:	4353      	muls	r3, r2
    451a:	58e3      	ldr	r3, [r4, r3]
    451c:	69da      	ldr	r2, [r3, #28]
    451e:	61da      	str	r2, [r3, #28]
    4520:	699a      	ldr	r2, [r3, #24]
    4522:	619a      	str	r2, [r3, #24]
    4524:	bd73      	pop	{r0, r1, r4, r5, r6, pc}
    4526:	46c0      	nop			@ (mov r8, r8)
    4528:	20001070 			@ <UNDEFINED> instruction: 20001070
    452c:	00005ad8 	ldrdeq	r5, [r0], -r8
    4530:	20001074 			@ <UNDEFINED> instruction: 20001074

00004534 <comm_init>:
    4534:	4b0e      	ldr	r3, [pc, #56]	@ (4570 <comm_init+0x3c>)
    4536:	b510      	push	{r4, lr}
    4538:	f241 0200 	movw	r2, #4096	@ 0x1000
    453c:	0004      	movs	r4, r0
    453e:	6018      	str	r0, [r3, #0]
    4540:	490c      	ldr	r1, [pc, #48]	@ (4574 <comm_init+0x40>)
    4542:	480d      	ldr	r0, [pc, #52]	@ (4578 <comm_init+0x44>)
    4544:	f7fd f88c 	bl	1660 <isrpipe_init>
    4548:	b110      	cbz	r0, 4550 <comm_init+0x1c>
    454a:	2001      	movs	r0, #1
    454c:	4240      	negs	r0, r0
    454e:	bd10      	pop	{r4, pc}
    4550:	21e1      	movs	r1, #225	@ 0xe1
    4552:	0020      	movs	r0, r4
    4554:	02c9      	lsls	r1, r1, #11
    4556:	f7fc fa95 	bl	a84 <uart_init>
    455a:	0001      	movs	r1, r0
    455c:	2800      	cmp	r0, #0
    455e:	d1f4      	bne.n	454a <comm_init+0x16>
    4560:	0002      	movs	r2, r0
    4562:	4b06      	ldr	r3, [pc, #24]	@ (457c <comm_init+0x48>)
    4564:	0020      	movs	r0, r4
    4566:	f7fc fa45 	bl	9f4 <uart_irq_setup>
    456a:	1e43      	subs	r3, r0, #1
    456c:	4198      	sbcs	r0, r3
    456e:	e7ed      	b.n	454c <comm_init+0x18>
    4570:	20001070 			@ <UNDEFINED> instruction: 20001070
    4574:	200010a4 			@ <UNDEFINED> instruction: 200010a4
    4578:	20001074 			@ <UNDEFINED> instruction: 20001074
    457c:	000044e9 			@ <UNDEFINED> instruction: 000044e9

00004580 <comm_read>:
    4580:	b5f8      	push	{r3, r4, r5, r6, r7, lr}
    4582:	0005      	movs	r5, r0
    4584:	000c      	movs	r4, r1
    4586:	0017      	movs	r7, r2
    4588:	2600      	movs	r6, #0
    458a:	003b      	movs	r3, r7
    458c:	0022      	movs	r2, r4
    458e:	0029      	movs	r1, r5
    4590:	4805      	ldr	r0, [pc, #20]	@ (45a8 <comm_read+0x28>)
    4592:	f7fd f87a 	bl	168a <isrpipe_read>
    4596:	1c43      	adds	r3, r0, #1
    4598:	d004      	beq.n	45a4 <comm_read+0x24>
    459a:	1a24      	subs	r4, r4, r0
    459c:	182d      	adds	r5, r5, r0
    459e:	1836      	adds	r6, r6, r0
    45a0:	2c00      	cmp	r4, #0
    45a2:	d1f2      	bne.n	458a <comm_read+0xa>
    45a4:	0030      	movs	r0, r6
    45a6:	bdf8      	pop	{r3, r4, r5, r6, r7, pc}
    45a8:	20001074 			@ <UNDEFINED> instruction: 20001074

000045ac <comm_write>:
    45ac:	b510      	push	{r4, lr}
    45ae:	4b03      	ldr	r3, [pc, #12]	@ (45bc <comm_write+0x10>)
    45b0:	000a      	movs	r2, r1
    45b2:	0001      	movs	r1, r0
    45b4:	6818      	ldr	r0, [r3, #0]
    45b6:	f7fc fab7 	bl	b28 <uart_write>
    45ba:	bd10      	pop	{r4, pc}
    45bc:	20001070 			@ <UNDEFINED> instruction: 20001070

000045c0 <comm_rx_flush>:
    45c0:	4b04      	ldr	r3, [pc, #16]	@ (45d4 <comm_rx_flush+0x14>)
    45c2:	4a05      	ldr	r2, [pc, #20]	@ (45d8 <comm_rx_flush+0x18>)
    45c4:	2000      	movs	r0, #0
    45c6:	601a      	str	r2, [r3, #0]
    45c8:	f241 0200 	movw	r2, #4096	@ 0x1000
    45cc:	6098      	str	r0, [r3, #8]
    45ce:	605a      	str	r2, [r3, #4]
    45d0:	60d8      	str	r0, [r3, #12]
    45d2:	4770      	bx	lr
    45d4:	20001074 			@ <UNDEFINED> instruction: 20001074
    45d8:	200010a4 			@ <UNDEFINED> instruction: 200010a4

000045dc <comm_deinit>:
    45dc:	b510      	push	{r4, lr}
    45de:	4c06      	ldr	r4, [pc, #24]	@ (45f8 <comm_deinit+0x1c>)
    45e0:	6820      	ldr	r0, [r4, #0]
    45e2:	f7fc facd 	bl	b80 <uart_close>
    45e6:	4805      	ldr	r0, [pc, #20]	@ (45fc <comm_deinit+0x20>)
    45e8:	f7fd f849 	bl	167e <isrpipe_free>
    45ec:	6823      	ldr	r3, [r4, #0]
    45ee:	b90b      	cbnz	r3, 45f4 <comm_deinit+0x18>
    45f0:	f7fd ff88 	bl	2504 <uart_stdout_init>
    45f4:	2000      	movs	r0, #0
    45f6:	bd10      	pop	{r4, pc}
    45f8:	20001070 			@ <UNDEFINED> instruction: 20001070
    45fc:	20001074 			@ <UNDEFINED> instruction: 20001074

00004600 <send_res_pkt>:
    4600:	b537      	push	{r0, r1, r2, r4, r5, lr}
    4602:	4b0b      	ldr	r3, [pc, #44]	@ (4630 <send_res_pkt+0x30>)
    4604:	0005      	movs	r5, r0
    4606:	9301      	str	r3, [sp, #4]
    4608:	78c4      	ldrb	r4, [r0, #3]
    460a:	7883      	ldrb	r3, [r0, #2]
    460c:	0224      	lsls	r4, r4, #8
    460e:	431c      	orrs	r4, r3
    4610:	f241 0304 	movw	r3, #4100	@ 0x1004
    4614:	ba64      	rev16	r4, r4
    4616:	b2a4      	uxth	r4, r4
    4618:	429c      	cmp	r4, r3
    461a:	d807      	bhi.n	462c <send_res_pkt+0x2c>
    461c:	2104      	movs	r1, #4
    461e:	a801      	add	r0, sp, #4
    4620:	f7ff ffc4 	bl	45ac <comm_write>
    4624:	0028      	movs	r0, r5
    4626:	1d21      	adds	r1, r4, #4
    4628:	f7ff ffc0 	bl	45ac <comm_write>
    462c:	bd37      	pop	{r0, r1, r2, r4, r5, pc}
    462e:	46c0      	nop			@ (mov r8, r8)
    4630:	3a283739 			@ <UNDEFINED> instruction: 3a283739

00004634 <notify_update_start>:
    4634:	f240 3380 	movw	r3, #896	@ 0x380
    4638:	b507      	push	{r0, r1, r2, lr}
    463a:	a801      	add	r0, sp, #4
    463c:	9301      	str	r3, [sp, #4]
    463e:	f7ff ffdf 	bl	4600 <send_res_pkt>
    4642:	bd07      	pop	{r0, r1, r2, pc}

00004644 <receive_packet>:
    4644:	b5f7      	push	{r0, r1, r2, r4, r5, r6, r7, lr}
    4646:	0004      	movs	r4, r0
    4648:	000f      	movs	r7, r1
    464a:	2600      	movs	r6, #0
    464c:	f7ff ffb8 	bl	45c0 <comm_rx_flush>
    4650:	f7fc ffe0 	bl	1614 <get_systick>
    4654:	466b      	mov	r3, sp
    4656:	0005      	movs	r5, r0
    4658:	003a      	movs	r2, r7
    465a:	2101      	movs	r1, #1
    465c:	1dd8      	adds	r0, r3, #7
    465e:	f7ff ff8f 	bl	4580 <comm_read>
    4662:	b318      	cbz	r0, 46ac <receive_packet+0x68>
    4664:	466b      	mov	r3, sp
    4666:	79db      	ldrb	r3, [r3, #7]
    4668:	0236      	lsls	r6, r6, #8
    466a:	431e      	orrs	r6, r3
    466c:	f7fc ffd2 	bl	1614 <get_systick>
    4670:	4285      	cmp	r5, r0
    4672:	d801      	bhi.n	4678 <receive_packet+0x34>
    4674:	197f      	adds	r7, r7, r5
    4676:	1a3f      	subs	r7, r7, r0
    4678:	4b11      	ldr	r3, [pc, #68]	@ (46c0 <receive_packet+0x7c>)
    467a:	429e      	cmp	r6, r3
    467c:	d1e8      	bne.n	4650 <receive_packet+0xc>
    467e:	220a      	movs	r2, #10
    4680:	2104      	movs	r1, #4
    4682:	0020      	movs	r0, r4
    4684:	f7ff ff7c 	bl	4580 <comm_read>
    4688:	2804      	cmp	r0, #4
    468a:	d112      	bne.n	46b2 <receive_packet+0x6e>
    468c:	f241 0304 	movw	r3, #4100	@ 0x1004
    4690:	8865      	ldrh	r5, [r4, #2]
    4692:	ba6d      	rev16	r5, r5
    4694:	b2ad      	uxth	r5, r5
    4696:	429d      	cmp	r5, r3
    4698:	d80d      	bhi.n	46b6 <receive_packet+0x72>
    469a:	220a      	movs	r2, #10
    469c:	0029      	movs	r1, r5
    469e:	1d20      	adds	r0, r4, #4
    46a0:	f7ff ff6e 	bl	4580 <comm_read>
    46a4:	4285      	cmp	r5, r0
    46a6:	d108      	bne.n	46ba <receive_packet+0x76>
    46a8:	2000      	movs	r0, #0
    46aa:	bdfe      	pop	{r1, r2, r3, r4, r5, r6, r7, pc}
    46ac:	2001      	movs	r0, #1
    46ae:	4240      	negs	r0, r0
    46b0:	e7fb      	b.n	46aa <receive_packet+0x66>
    46b2:	2002      	movs	r0, #2
    46b4:	e7fb      	b.n	46ae <receive_packet+0x6a>
    46b6:	2003      	movs	r0, #3
    46b8:	e7f9      	b.n	46ae <receive_packet+0x6a>
    46ba:	2004      	movs	r0, #4
    46bc:	e7f7      	b.n	46ae <receive_packet+0x6a>
    46be:	46c0      	nop			@ (mov r8, r8)
    46c0:	3937283a 			@ <UNDEFINED> instruction: 3937283a

000046c4 <send_general_response>:
    46c4:	b507      	push	{r0, r1, r2, lr}
    46c6:	4b04      	ldr	r3, [pc, #16]	@ (46d8 <send_general_response+0x14>)
    46c8:	9300      	str	r3, [sp, #0]
    46ca:	466b      	mov	r3, sp
    46cc:	7118      	strb	r0, [r3, #4]
    46ce:	4668      	mov	r0, sp
    46d0:	f7ff ff96 	bl	4600 <send_res_pkt>
    46d4:	bd07      	pop	{r0, r1, r2, pc}
    46d6:	46c0      	nop			@ (mov r8, r8)
    46d8:	01000180 			@ <UNDEFINED> instruction: 01000180

000046dc <proc_get_uid>:
    46dc:	b530      	push	{r4, r5, lr}
    46de:	2400      	movs	r4, #0
    46e0:	b087      	sub	sp, #28
    46e2:	ad02      	add	r5, sp, #8
    46e4:	2210      	movs	r2, #16
    46e6:	2100      	movs	r1, #0
    46e8:	0028      	movs	r0, r5
    46ea:	f7fb fe4f 	bl	38c <memset>
    46ee:	210c      	movs	r1, #12
    46f0:	aa01      	add	r2, sp, #4
    46f2:	a803      	add	r0, sp, #12
    46f4:	9401      	str	r4, [sp, #4]
    46f6:	f7fc fd27 	bl	1148 <get_cpu_uid>
    46fa:	9b01      	ldr	r3, [sp, #4]
    46fc:	2b0c      	cmp	r3, #12
    46fe:	d101      	bne.n	4704 <proc_get_uid+0x28>
    4700:	f640 4400 	movw	r4, #3072	@ 0xc00
    4704:	f640 4380 	movw	r3, #3200	@ 0xc80
    4708:	0028      	movs	r0, r5
    470a:	802b      	strh	r3, [r5, #0]
    470c:	806c      	strh	r4, [r5, #2]
    470e:	f7ff ff77 	bl	4600 <send_res_pkt>
    4712:	b007      	add	sp, #28
    4714:	bd30      	pop	{r4, r5, pc}

00004716 <proc_reset>:
    4716:	b510      	push	{r4, lr}
    4718:	2000      	movs	r0, #0
    471a:	f7ff ffd3 	bl	46c4 <send_general_response>
    471e:	2064      	movs	r0, #100	@ 0x64
    4720:	f7fc ff86 	bl	1630 <systick_delay>
    4724:	f7fc ff40 	bl	15a8 <reset_chip>
    4728:	bd10      	pop	{r4, pc}
	...

0000472c <proc_read>:
    472c:	b57f      	push	{r0, r1, r2, r3, r4, r5, r6, lr}
    472e:	0005      	movs	r5, r0
    4730:	f241 0004 	movw	r0, #4100	@ 0x1004
    4734:	f000 fb5e 	bl	4df4 <malloc>
    4738:	0004      	movs	r4, r0
    473a:	b170      	cbz	r0, 475a <proc_read+0x2e>
    473c:	f241 0204 	movw	r2, #4100	@ 0x1004
    4740:	2100      	movs	r1, #0
    4742:	f7fb fe23 	bl	38c <memset>
    4746:	782b      	ldrb	r3, [r5, #0]
    4748:	2b01      	cmp	r3, #1
    474a:	d107      	bne.n	475c <proc_read+0x30>
    474c:	892e      	ldrh	r6, [r5, #8]
    474e:	6869      	ldr	r1, [r5, #4]
    4750:	0032      	movs	r2, r6
    4752:	1d20      	adds	r0, r4, #4
    4754:	f000 fb70 	bl	4e38 <memcpy>
    4758:	8066      	strh	r6, [r4, #2]
    475a:	bd7f      	pop	{r0, r1, r2, r3, r4, r5, r6, pc}
    475c:	2b02      	cmp	r3, #2
    475e:	d10d      	bne.n	477c <proc_read+0x50>
    4760:	2600      	movs	r6, #0
    4762:	a903      	add	r1, sp, #12
    4764:	9603      	str	r6, [sp, #12]
    4766:	892a      	ldrh	r2, [r5, #8]
    4768:	9100      	str	r1, [sp, #0]
    476a:	1d23      	adds	r3, r4, #4
    476c:	6869      	ldr	r1, [r5, #4]
    476e:	4805      	ldr	r0, [pc, #20]	@ (4784 <proc_read+0x58>)
    4770:	f7fe fa6a 	bl	2c48 <mtd_read>
    4774:	9b03      	ldr	r3, [sp, #12]
    4776:	8026      	strh	r6, [r4, #0]
    4778:	8063      	strh	r3, [r4, #2]
    477a:	e7ee      	b.n	475a <proc_read+0x2e>
    477c:	230c      	movs	r3, #12
    477e:	8023      	strh	r3, [r4, #0]
    4780:	e7eb      	b.n	475a <proc_read+0x2e>
    4782:	46c0      	nop			@ (mov r8, r8)
    4784:	20000c88 			@ <UNDEFINED> instruction: 20000c88

00004788 <proc_write>:
    4788:	b51f      	push	{r0, r1, r2, r3, r4, lr}
    478a:	7803      	ldrb	r3, [r0, #0]
    478c:	0004      	movs	r4, r0
    478e:	2b01      	cmp	r3, #1
    4790:	d10c      	bne.n	47ac <proc_write+0x24>
    4792:	6840      	ldr	r0, [r0, #4]
    4794:	0503      	lsls	r3, r0, #20
    4796:	b113      	cbz	r3, 479e <proc_write+0x16>
    4798:	8921      	ldrh	r1, [r4, #8]
    479a:	f7fc fcf5 	bl	1188 <flash_erase>
    479e:	0021      	movs	r1, r4
    47a0:	8922      	ldrh	r2, [r4, #8]
    47a2:	6860      	ldr	r0, [r4, #4]
    47a4:	310a      	adds	r1, #10
    47a6:	f7fc fdcf 	bl	1348 <flash_write>
    47aa:	bd1f      	pop	{r0, r1, r2, r3, r4, pc}
    47ac:	2b02      	cmp	r3, #2
    47ae:	d1fc      	bne.n	47aa <proc_write+0x22>
    47b0:	2300      	movs	r3, #0
    47b2:	9303      	str	r3, [sp, #12]
    47b4:	0003      	movs	r3, r0
    47b6:	a903      	add	r1, sp, #12
    47b8:	8902      	ldrh	r2, [r0, #8]
    47ba:	9100      	str	r1, [sp, #0]
    47bc:	6841      	ldr	r1, [r0, #4]
    47be:	330a      	adds	r3, #10
    47c0:	4801      	ldr	r0, [pc, #4]	@ (47c8 <proc_write+0x40>)
    47c2:	f7fe fa61 	bl	2c88 <mtd_write>
    47c6:	e7f0      	b.n	47aa <proc_write+0x22>
    47c8:	20000c88 			@ <UNDEFINED> instruction: 20000c88

000047cc <update_needed>:
    47cc:	b530      	push	{r4, r5, lr}
    47ce:	0004      	movs	r4, r0
    47d0:	b085      	sub	sp, #20
    47d2:	f7ff fef5 	bl	45c0 <comm_rx_flush>
    47d6:	0021      	movs	r1, r4
    47d8:	4668      	mov	r0, sp
    47da:	466d      	mov	r5, sp
    47dc:	f7ff ff32 	bl	4644 <receive_packet>
    47e0:	b948      	cbnz	r0, 47f6 <update_needed+0x2a>
    47e2:	f240 4300 	movw	r3, #1024	@ 0x400
    47e6:	882a      	ldrh	r2, [r5, #0]
    47e8:	429a      	cmp	r2, r3
    47ea:	d102      	bne.n	47f2 <update_needed+0x26>
    47ec:	f7ff ff22 	bl	4634 <notify_update_start>
    47f0:	2001      	movs	r0, #1
    47f2:	b005      	add	sp, #20
    47f4:	bd30      	pop	{r4, r5, pc}
    47f6:	2000      	movs	r0, #0
    47f8:	e7fb      	b.n	47f2 <update_needed+0x26>
	...

000047fc <update_thread>:
    47fc:	b510      	push	{r4, lr}
    47fe:	f7ff fedf 	bl	45c0 <comm_rx_flush>
    4802:	2101      	movs	r1, #1
    4804:	4c18      	ldr	r4, [pc, #96]	@ (4868 <update_thread+0x6c>)
    4806:	4249      	negs	r1, r1
    4808:	0020      	movs	r0, r4
    480a:	f7ff ff1b 	bl	4644 <receive_packet>
    480e:	8820      	ldrh	r0, [r4, #0]
    4810:	8861      	ldrh	r1, [r4, #2]
    4812:	ba40      	rev16	r0, r0
    4814:	b280      	uxth	r0, r0
    4816:	ba49      	rev16	r1, r1
    4818:	3801      	subs	r0, #1
    481a:	b289      	uxth	r1, r1
    481c:	280e      	cmp	r0, #14
    481e:	d8f0      	bhi.n	4802 <update_thread+0x6>
    4820:	f000 faa0 	bl	4d64 <__gnu_thumb1_case_sqi>
    4824:	08ef1d19 			@ <UNDEFINED> instruction: 08ef1d19
    4828:	0eefefef 			@ <UNDEFINED> instruction: 0eefefef
    482c:	0befefef 			@ <UNDEFINED> instruction: 0befefef
    4830:	001511ef 			@ <UNDEFINED> instruction: 001511ef
    4834:	f7ff fefe 	bl	4634 <notify_update_start>
    4838:	e7e3      	b.n	4802 <update_thread+0x6>
    483a:	f7ff ff4f 	bl	46dc <proc_get_uid>
    483e:	e7e0      	b.n	4802 <update_thread+0x6>
    4840:	f7ff ff69 	bl	4716 <proc_reset>
    4844:	e7dd      	b.n	4802 <update_thread+0x6>
    4846:	4809      	ldr	r0, [pc, #36]	@ (486c <update_thread+0x70>)
    4848:	f7ff ff9e 	bl	4788 <proc_write>
    484c:	e7d9      	b.n	4802 <update_thread+0x6>
    484e:	4807      	ldr	r0, [pc, #28]	@ (486c <update_thread+0x70>)
    4850:	f7ff ff6c 	bl	472c <proc_read>
    4854:	e7d5      	b.n	4802 <update_thread+0x6>
    4856:	4805      	ldr	r0, [pc, #20]	@ (486c <update_thread+0x70>)
    4858:	f000 f84a 	bl	48f0 <proc_download_image>
    485c:	e7d1      	b.n	4802 <update_thread+0x6>
    485e:	4803      	ldr	r0, [pc, #12]	@ (486c <update_thread+0x70>)
    4860:	f000 f86e 	bl	4940 <proc_download_next>
    4864:	e7cd      	b.n	4802 <update_thread+0x6>
    4866:	46c0      	nop			@ (mov r8, r8)
    4868:	200020a4 			@ <UNDEFINED> instruction: 200020a4
    486c:	200020a8 			@ <UNDEFINED> instruction: 200020a8

00004870 <find_spe_region>:
    4870:	f240 12b4 	movw	r2, #436	@ 0x1b4
    4874:	4b03      	ldr	r3, [pc, #12]	@ (4884 <find_spe_region+0x14>)
    4876:	4904      	ldr	r1, [pc, #16]	@ (4888 <find_spe_region+0x18>)
    4878:	681b      	ldr	r3, [r3, #0]
    487a:	2000      	movs	r0, #0
    487c:	3328      	adds	r3, #40	@ 0x28
    487e:	508b      	str	r3, [r1, r2]
    4880:	4770      	bx	lr
    4882:	46c0      	nop			@ (mov r8, r8)
    4884:	20000d0c 			@ <UNDEFINED> instruction: 20000d0c
    4888:	20000ea0 			@ <UNDEFINED> instruction: 20000ea0

0000488c <find_nspe_region>:
    488c:	f240 12b4 	movw	r2, #436	@ 0x1b4
    4890:	4b03      	ldr	r3, [pc, #12]	@ (48a0 <find_nspe_region+0x14>)
    4892:	4904      	ldr	r1, [pc, #16]	@ (48a4 <find_nspe_region+0x18>)
    4894:	681b      	ldr	r3, [r3, #0]
    4896:	2000      	movs	r0, #0
    4898:	333c      	adds	r3, #60	@ 0x3c
    489a:	508b      	str	r3, [r1, r2]
    489c:	4770      	bx	lr
    489e:	46c0      	nop			@ (mov r8, r8)
    48a0:	20000d0c 			@ <UNDEFINED> instruction: 20000d0c
    48a4:	20000ea0 			@ <UNDEFINED> instruction: 20000ea0

000048a8 <region_update>:
    48a8:	b570      	push	{r4, r5, r6, lr}
    48aa:	0005      	movs	r5, r0
    48ac:	0008      	movs	r0, r1
    48ae:	0011      	movs	r1, r2
    48b0:	001a      	movs	r2, r3
    48b2:	2d01      	cmp	r5, #1
    48b4:	d10d      	bne.n	48d2 <region_update+0x2a>
    48b6:	f7fd fa9b 	bl	1df0 <secure_update_begin>
    48ba:	0004      	movs	r4, r0
    48bc:	2805      	cmp	r0, #5
    48be:	dc0e      	bgt.n	48de <region_update+0x36>
    48c0:	2800      	cmp	r0, #0
    48c2:	db0c      	blt.n	48de <region_update+0x36>
    48c4:	3802      	subs	r0, #2
    48c6:	2803      	cmp	r0, #3
    48c8:	d809      	bhi.n	48de <region_update+0x36>
    48ca:	f000 fa55 	bl	4d78 <__gnu_thumb1_case_uqi>
    48ce:	0e0c0a07 	vmlaeq.f32	s0, s24, s14
    48d2:	240c      	movs	r4, #12
    48d4:	b91d      	cbnz	r5, 48de <region_update+0x36>
    48d6:	f7fd faad 	bl	1e34 <nonsecure_update_begin>
    48da:	e7ee      	b.n	48ba <region_update+0x12>
    48dc:	2401      	movs	r4, #1
    48de:	0020      	movs	r0, r4
    48e0:	bd70      	pop	{r4, r5, r6, pc}
    48e2:	2408      	movs	r4, #8
    48e4:	e7fb      	b.n	48de <region_update+0x36>
    48e6:	2403      	movs	r4, #3
    48e8:	e7f9      	b.n	48de <region_update+0x36>
    48ea:	2407      	movs	r4, #7
    48ec:	e7f7      	b.n	48de <region_update+0x36>
	...

000048f0 <proc_download_image>:
    48f0:	b570      	push	{r4, r5, r6, lr}
    48f2:	0004      	movs	r4, r0
    48f4:	2003      	movs	r0, #3
    48f6:	000d      	movs	r5, r1
    48f8:	4281      	cmp	r1, r0
    48fa:	dd16      	ble.n	492a <proc_download_image+0x3a>
    48fc:	4e0f      	ldr	r6, [pc, #60]	@ (493c <proc_download_image+0x4c>)
    48fe:	f240 12c0 	movw	r2, #448	@ 0x1c0
    4902:	2100      	movs	r1, #0
    4904:	0030      	movs	r0, r6
    4906:	f7fb fd41 	bl	38c <memset>
    490a:	7820      	ldrb	r0, [r4, #0]
    490c:	1d21      	adds	r1, r4, #4
    490e:	6030      	str	r0, [r6, #0]
    4910:	7863      	ldrb	r3, [r4, #1]
    4912:	78a2      	ldrb	r2, [r4, #2]
    4914:	041b      	lsls	r3, r3, #16
    4916:	0212      	lsls	r2, r2, #8
    4918:	4313      	orrs	r3, r2
    491a:	78e2      	ldrb	r2, [r4, #3]
    491c:	4313      	orrs	r3, r2
    491e:	1f2a      	subs	r2, r5, #4
    4920:	2801      	cmp	r0, #1
    4922:	d007      	beq.n	4934 <proc_download_image+0x44>
    4924:	2806      	cmp	r0, #6
    4926:	d004      	beq.n	4932 <proc_download_image+0x42>
    4928:	2001      	movs	r0, #1
    492a:	f7ff fecb 	bl	46c4 <send_general_response>
    492e:	2000      	movs	r0, #0
    4930:	bd70      	pop	{r4, r5, r6, pc}
    4932:	2000      	movs	r0, #0
    4934:	f7ff ffb8 	bl	48a8 <region_update>
    4938:	e7f7      	b.n	492a <proc_download_image+0x3a>
    493a:	46c0      	nop			@ (mov r8, r8)
    493c:	20000ea0 			@ <UNDEFINED> instruction: 20000ea0

00004940 <proc_download_next>:
    4940:	f240 13bc 	movw	r3, #444	@ 0x1bc
    4944:	4a05      	ldr	r2, [pc, #20]	@ (495c <proc_download_next+0x1c>)
    4946:	b510      	push	{r4, lr}
    4948:	58d2      	ldr	r2, [r2, r3]
    494a:	3bb5      	subs	r3, #181	@ 0xb5
    494c:	3bff      	subs	r3, #255	@ 0xff
    494e:	b10a      	cbz	r2, 4954 <proc_download_next+0x14>
    4950:	4790      	blx	r2
    4952:	0003      	movs	r3, r0
    4954:	0018      	movs	r0, r3
    4956:	f7ff feb5 	bl	46c4 <send_general_response>
    495a:	bd10      	pop	{r4, pc}
    495c:	20000ea0 			@ <UNDEFINED> instruction: 20000ea0

00004960 <init_exteral_flash>:
    4960:	b510      	push	{r4, lr}
    4962:	b0a0      	sub	sp, #128	@ 0x80
    4964:	2280      	movs	r2, #128	@ 0x80
    4966:	2100      	movs	r1, #0
    4968:	4668      	mov	r0, sp
    496a:	f7fb fd0f 	bl	38c <memset>
    496e:	480a      	ldr	r0, [pc, #40]	@ (4998 <init_exteral_flash+0x38>)
    4970:	f7fe f93c 	bl	2bec <mtd_init>
    4974:	4669      	mov	r1, sp
    4976:	4808      	ldr	r0, [pc, #32]	@ (4998 <init_exteral_flash+0x38>)
    4978:	f7fe f9a4 	bl	2cc4 <mtd_get_info>
    497c:	0004      	movs	r4, r0
    497e:	b930      	cbnz	r0, 498e <init_exteral_flash+0x2e>
    4980:	4669      	mov	r1, sp
    4982:	4806      	ldr	r0, [pc, #24]	@ (499c <init_exteral_flash+0x3c>)
    4984:	f7fe f8ba 	bl	2afc <printf_>
    4988:	0020      	movs	r0, r4
    498a:	b020      	add	sp, #128	@ 0x80
    498c:	bd10      	pop	{r4, pc}
    498e:	4804      	ldr	r0, [pc, #16]	@ (49a0 <init_exteral_flash+0x40>)
    4990:	f7fe f8b4 	bl	2afc <printf_>
    4994:	2401      	movs	r4, #1
    4996:	e7f7      	b.n	4988 <init_exteral_flash+0x28>
    4998:	20000c88 			@ <UNDEFINED> instruction: 20000c88
    499c:	000052a4 			@ <UNDEFINED> instruction: 000052a4
    49a0:	000052a7 			@ <UNDEFINED> instruction: 000052a7

000049a4 <main>:
    49a4:	b5f0      	push	{r4, r5, r6, r7, lr}
    49a6:	b089      	sub	sp, #36	@ 0x24
    49a8:	f7ff fd74 	bl	4494 <board_init>
    49ac:	48ba      	ldr	r0, [pc, #744]	@ (4c98 <main+0x2f4>)
    49ae:	f7fe f8a5 	bl	2afc <printf_>
    49b2:	49ba      	ldr	r1, [pc, #744]	@ (4c9c <main+0x2f8>)
    49b4:	48ba      	ldr	r0, [pc, #744]	@ (4ca0 <main+0x2fc>)
    49b6:	f7fe f8a1 	bl	2afc <printf_>
    49ba:	f7fe f8e3 	bl	2b84 <version_get_string>
    49be:	0001      	movs	r1, r0
    49c0:	48b7      	ldr	r0, [pc, #732]	@ (4ca0 <main+0x2fc>)
    49c2:	f7fe f89b 	bl	2afc <printf_>
    49c6:	48b7      	ldr	r0, [pc, #732]	@ (4ca4 <main+0x300>)
    49c8:	f7fe f898 	bl	2afc <printf_>
    49cc:	48b6      	ldr	r0, [pc, #728]	@ (4ca8 <main+0x304>)
    49ce:	f7fe f895 	bl	2afc <printf_>
    49d2:	49b6      	ldr	r1, [pc, #728]	@ (4cac <main+0x308>)
    49d4:	48b6      	ldr	r0, [pc, #728]	@ (4cb0 <main+0x30c>)
    49d6:	f7fe f891 	bl	2afc <printf_>
    49da:	f7fc fde9 	bl	15b0 <secureboot_status>
    49de:	2801      	cmp	r0, #1
    49e0:	d167      	bne.n	4ab2 <main+0x10e>
    49e2:	48b4      	ldr	r0, [pc, #720]	@ (4cb4 <main+0x310>)
    49e4:	f7fe f88a 	bl	2afc <printf_>
    49e8:	4bb3      	ldr	r3, [pc, #716]	@ (4cb8 <main+0x314>)
    49ea:	6a9a      	ldr	r2, [r3, #40]	@ 0x28
    49ec:	23a0      	movs	r3, #160	@ 0xa0
    49ee:	02db      	lsls	r3, r3, #11
    49f0:	429a      	cmp	r2, r3
    49f2:	d03e      	beq.n	4a72 <main+0xce>
    49f4:	48b1      	ldr	r0, [pc, #708]	@ (4cbc <main+0x318>)
    49f6:	f7fe f881 	bl	2afc <printf_>
    49fa:	2416      	movs	r4, #22
    49fc:	2059      	movs	r0, #89	@ 0x59
    49fe:	2588      	movs	r5, #136	@ 0x88
    4a00:	4aaf      	ldr	r2, [pc, #700]	@ (4cc0 <main+0x31c>)
    4a02:	4bb0      	ldr	r3, [pc, #704]	@ (4cc4 <main+0x320>)
    4a04:	3a01      	subs	r2, #1
    4a06:	6058      	str	r0, [r3, #4]
    4a08:	605c      	str	r4, [r3, #4]
    4a0a:	605d      	str	r5, [r3, #4]
    4a0c:	b112      	cbz	r2, 4a14 <main+0x70>
    4a0e:	6859      	ldr	r1, [r3, #4]
    4a10:	2900      	cmp	r1, #0
    4a12:	d0f7      	beq.n	4a04 <main+0x60>
    4a14:	2211      	movs	r2, #17
    4a16:	4bac      	ldr	r3, [pc, #688]	@ (4cc8 <main+0x324>)
    4a18:	601a      	str	r2, [r3, #0]
    4a1a:	4aac      	ldr	r2, [pc, #688]	@ (4ccc <main+0x328>)
    4a1c:	605a      	str	r2, [r3, #4]
    4a1e:	2200      	movs	r2, #0
    4a20:	60da      	str	r2, [r3, #12]
    4a22:	3201      	adds	r2, #1
    4a24:	611a      	str	r2, [r3, #16]
    4a26:	691a      	ldr	r2, [r3, #16]
    4a28:	2a00      	cmp	r2, #0
    4a2a:	d1fc      	bne.n	4a26 <main+0x82>
    4a2c:	689a      	ldr	r2, [r3, #8]
    4a2e:	3201      	adds	r2, #1
    4a30:	d006      	beq.n	4a40 <main+0x9c>
    4a32:	2222      	movs	r2, #34	@ 0x22
    4a34:	60da      	str	r2, [r3, #12]
    4a36:	3a21      	subs	r2, #33	@ 0x21
    4a38:	611a      	str	r2, [r3, #16]
    4a3a:	691a      	ldr	r2, [r3, #16]
    4a3c:	2a00      	cmp	r2, #0
    4a3e:	d1fc      	bne.n	4a3a <main+0x96>
    4a40:	22a0      	movs	r2, #160	@ 0xa0
    4a42:	02d2      	lsls	r2, r2, #11
    4a44:	609a      	str	r2, [r3, #8]
    4a46:	2221      	movs	r2, #33	@ 0x21
    4a48:	60da      	str	r2, [r3, #12]
    4a4a:	3a20      	subs	r2, #32
    4a4c:	611a      	str	r2, [r3, #16]
    4a4e:	691c      	ldr	r4, [r3, #16]
    4a50:	2c00      	cmp	r4, #0
    4a52:	d1fc      	bne.n	4a4e <main+0xaa>
    4a54:	21a0      	movs	r1, #160	@ 0xa0
    4a56:	489e      	ldr	r0, [pc, #632]	@ (4cd0 <main+0x32c>)
    4a58:	02c9      	lsls	r1, r1, #11
    4a5a:	f7fe f84f 	bl	2afc <printf_>
    4a5e:	f242 720f 	movw	r2, #9999	@ 0x270f
    4a62:	9407      	str	r4, [sp, #28]
    4a64:	9b07      	ldr	r3, [sp, #28]
    4a66:	4293      	cmp	r3, r2
    4a68:	dd25      	ble.n	4ab6 <main+0x112>
    4a6a:	2380      	movs	r3, #128	@ 0x80
    4a6c:	2201      	movs	r2, #1
    4a6e:	05db      	lsls	r3, r3, #23
    4a70:	609a      	str	r2, [r3, #8]
    4a72:	4898      	ldr	r0, [pc, #608]	@ (4cd4 <main+0x330>)
    4a74:	f7fe f842 	bl	2afc <printf_>
    4a78:	f7ff ff72 	bl	4960 <init_exteral_flash>
    4a7c:	bb00      	cbnz	r0, 4ac0 <main+0x11c>
    4a7e:	4896      	ldr	r0, [pc, #600]	@ (4cd8 <main+0x334>)
    4a80:	f7fe f83c 	bl	2afc <printf_>
    4a84:	2701      	movs	r7, #1
    4a86:	2100      	movs	r1, #0
    4a88:	4894      	ldr	r0, [pc, #592]	@ (4cdc <main+0x338>)
    4a8a:	f7fe f837 	bl	2afc <printf_>
    4a8e:	4894      	ldr	r0, [pc, #592]	@ (4ce0 <main+0x33c>)
    4a90:	f7fe f834 	bl	2afc <printf_>
    4a94:	2000      	movs	r0, #0
    4a96:	f7fd fce3 	bl	2460 <region_check>
    4a9a:	0006      	movs	r6, r0
    4a9c:	2801      	cmp	r0, #1
    4a9e:	d014      	beq.n	4aca <main+0x126>
    4aa0:	4890      	ldr	r0, [pc, #576]	@ (4ce4 <main+0x340>)
    4aa2:	f7fe f82b 	bl	2afc <printf_>
    4aa6:	2064      	movs	r0, #100	@ 0x64
    4aa8:	f7fc fdc2 	bl	1630 <systick_delay>
    4aac:	f7fc fd7c 	bl	15a8 <reset_chip>
    4ab0:	e7fe      	b.n	4ab0 <main+0x10c>
    4ab2:	488d      	ldr	r0, [pc, #564]	@ (4ce8 <main+0x344>)
    4ab4:	e796      	b.n	49e4 <main+0x40>
    4ab6:	46c0      	nop			@ (mov r8, r8)
    4ab8:	9b07      	ldr	r3, [sp, #28]
    4aba:	3301      	adds	r3, #1
    4abc:	9307      	str	r3, [sp, #28]
    4abe:	e7d1      	b.n	4a64 <main+0xc0>
    4ac0:	488a      	ldr	r0, [pc, #552]	@ (4cec <main+0x348>)
    4ac2:	f7fe f81b 	bl	2afc <printf_>
    4ac6:	2700      	movs	r7, #0
    4ac8:	e7dd      	b.n	4a86 <main+0xe2>
    4aca:	4889      	ldr	r0, [pc, #548]	@ (4cf0 <main+0x34c>)
    4acc:	f7fe f816 	bl	2afc <printf_>
    4ad0:	f7fd fc5e 	bl	2390 <region_display_config>
    4ad4:	4887      	ldr	r0, [pc, #540]	@ (4cf4 <main+0x350>)
    4ad6:	f7fd fceb 	bl	24b0 <abm_config_load>
    4ada:	2801      	cmp	r0, #1
    4adc:	d83c      	bhi.n	4b58 <main+0x1b4>
    4ade:	d139      	bne.n	4b54 <main+0x1b0>
    4ae0:	4985      	ldr	r1, [pc, #532]	@ (4cf8 <main+0x354>)
    4ae2:	4c84      	ldr	r4, [pc, #528]	@ (4cf4 <main+0x350>)
    4ae4:	7a60      	ldrb	r0, [r4, #9]
    4ae6:	7863      	ldrb	r3, [r4, #1]
    4ae8:	7822      	ldrb	r2, [r4, #0]
    4aea:	9003      	str	r0, [sp, #12]
    4aec:	7aa0      	ldrb	r0, [r4, #10]
    4aee:	9002      	str	r0, [sp, #8]
    4af0:	7a20      	ldrb	r0, [r4, #8]
    4af2:	9001      	str	r0, [sp, #4]
    4af4:	6860      	ldr	r0, [r4, #4]
    4af6:	9000      	str	r0, [sp, #0]
    4af8:	4880      	ldr	r0, [pc, #512]	@ (4cfc <main+0x358>)
    4afa:	f7fd ffff 	bl	2afc <printf_>
    4afe:	4880      	ldr	r0, [pc, #512]	@ (4d00 <main+0x35c>)
    4b00:	f7fd fffc 	bl	2afc <printf_>
    4b04:	2000      	movs	r0, #0
    4b06:	f7fd fbff 	bl	2308 <region_duplicate_bootloader>
    4b0a:	2801      	cmp	r0, #1
    4b0c:	d12b      	bne.n	4b66 <main+0x1c2>
    4b0e:	487d      	ldr	r0, [pc, #500]	@ (4d04 <main+0x360>)
    4b10:	f7fd fff4 	bl	2afc <printf_>
    4b14:	2001      	movs	r0, #1
    4b16:	f7fd fbb5 	bl	2284 <region_get_status>
    4b1a:	0005      	movs	r5, r0
    4b1c:	bb48      	cbnz	r0, 4b72 <main+0x1ce>
    4b1e:	487a      	ldr	r0, [pc, #488]	@ (4d08 <main+0x364>)
    4b20:	f7fd ffec 	bl	2afc <printf_>
    4b24:	4879      	ldr	r0, [pc, #484]	@ (4d0c <main+0x368>)
    4b26:	f7fd ffe9 	bl	2afc <printf_>
    4b2a:	2600      	movs	r6, #0
    4b2c:	4878      	ldr	r0, [pc, #480]	@ (4d10 <main+0x36c>)
    4b2e:	f7fd ffe5 	bl	2afc <printf_>
    4b32:	2002      	movs	r0, #2
    4b34:	f7fc fd7c 	bl	1630 <systick_delay>
    4b38:	b126      	cbz	r6, 4b44 <main+0x1a0>
    4b3a:	6860      	ldr	r0, [r4, #4]
    4b3c:	f7ff fe46 	bl	47cc <update_needed>
    4b40:	2800      	cmp	r0, #0
    4b42:	d06a      	beq.n	4c1a <main+0x276>
    4b44:	7860      	ldrb	r0, [r4, #1]
    4b46:	f7ff fcf5 	bl	4534 <comm_init>
    4b4a:	f7ff fe57 	bl	47fc <update_thread>
    4b4e:	f7ff fd45 	bl	45dc <comm_deinit>
    4b52:	e062      	b.n	4c1a <main+0x276>
    4b54:	496f      	ldr	r1, [pc, #444]	@ (4d14 <main+0x370>)
    4b56:	e7c4      	b.n	4ae2 <main+0x13e>
    4b58:	486f      	ldr	r0, [pc, #444]	@ (4d18 <main+0x374>)
    4b5a:	f7fd ffcf 	bl	2afc <printf_>
    4b5e:	486f      	ldr	r0, [pc, #444]	@ (4d1c <main+0x378>)
    4b60:	f7fd ffcc 	bl	2afc <printf_>
    4b64:	e7fe      	b.n	4b64 <main+0x1c0>
    4b66:	2802      	cmp	r0, #2
    4b68:	d101      	bne.n	4b6e <main+0x1ca>
    4b6a:	486d      	ldr	r0, [pc, #436]	@ (4d20 <main+0x37c>)
    4b6c:	e7d0      	b.n	4b10 <main+0x16c>
    4b6e:	486d      	ldr	r0, [pc, #436]	@ (4d24 <main+0x380>)
    4b70:	e7ce      	b.n	4b10 <main+0x16c>
    4b72:	2805      	cmp	r0, #5
    4b74:	d102      	bne.n	4b7c <main+0x1d8>
    4b76:	486c      	ldr	r0, [pc, #432]	@ (4d28 <main+0x384>)
    4b78:	f7fd ffc0 	bl	2afc <printf_>
    4b7c:	7a23      	ldrb	r3, [r4, #8]
    4b7e:	b1e3      	cbz	r3, 4bba <main+0x216>
    4b80:	2302      	movs	r3, #2
    4b82:	002a      	movs	r2, r5
    4b84:	439a      	bics	r2, r3
    4b86:	9205      	str	r2, [sp, #20]
    4b88:	2a01      	cmp	r2, #1
    4b8a:	d116      	bne.n	4bba <main+0x216>
    4b8c:	4867      	ldr	r0, [pc, #412]	@ (4d2c <main+0x388>)
    4b8e:	f7fd ffb5 	bl	2afc <printf_>
    4b92:	2100      	movs	r1, #0
    4b94:	9805      	ldr	r0, [sp, #20]
    4b96:	f7fd fb4d 	bl	2234 <region_copy_direct>
    4b9a:	2000      	movs	r0, #0
    4b9c:	f7fd fb72 	bl	2284 <region_get_status>
    4ba0:	0005      	movs	r5, r0
    4ba2:	0001      	movs	r1, r0
    4ba4:	4862      	ldr	r0, [pc, #392]	@ (4d30 <main+0x38c>)
    4ba6:	f7fd ffa9 	bl	2afc <printf_>
    4baa:	1e68      	subs	r0, r5, #1
    4bac:	2804      	cmp	r0, #4
    4bae:	d81c      	bhi.n	4bea <main+0x246>
    4bb0:	f000 f8e2 	bl	4d78 <__gnu_thumb1_case_uqi>
    4bb4:	202a286c 			@ <UNDEFINED> instruction: 202a286c
    4bb8:	7aa30020 			@ <UNDEFINED> instruction: 7aa30020
    4bbc:	b13b      	cbz	r3, 4bce <main+0x22a>
    4bbe:	2d02      	cmp	r5, #2
    4bc0:	d105      	bne.n	4bce <main+0x22a>
    4bc2:	485c      	ldr	r0, [pc, #368]	@ (4d34 <main+0x390>)
    4bc4:	f7fd ff9a 	bl	2afc <printf_>
    4bc8:	2101      	movs	r1, #1
    4bca:	0008      	movs	r0, r1
    4bcc:	e7e3      	b.n	4b96 <main+0x1f2>
    4bce:	7a63      	ldrb	r3, [r4, #9]
    4bd0:	b11b      	cbz	r3, 4bda <main+0x236>
    4bd2:	2d04      	cmp	r5, #4
    4bd4:	d101      	bne.n	4bda <main+0x236>
    4bd6:	4858      	ldr	r0, [pc, #352]	@ (4d38 <main+0x394>)
    4bd8:	e7f4      	b.n	4bc4 <main+0x220>
    4bda:	1c6b      	adds	r3, r5, #1
    4bdc:	2b01      	cmp	r3, #1
    4bde:	d99e      	bls.n	4b1e <main+0x17a>
    4be0:	0029      	movs	r1, r5
    4be2:	4856      	ldr	r0, [pc, #344]	@ (4d3c <main+0x398>)
    4be4:	f7fd ff8a 	bl	2afc <printf_>
    4be8:	e7d7      	b.n	4b9a <main+0x1f6>
    4bea:	4855      	ldr	r0, [pc, #340]	@ (4d40 <main+0x39c>)
    4bec:	f7fd ff86 	bl	2afc <printf_>
    4bf0:	4854      	ldr	r0, [pc, #336]	@ (4d44 <main+0x3a0>)
    4bf2:	e798      	b.n	4b26 <main+0x182>
    4bf4:	4854      	ldr	r0, [pc, #336]	@ (4d48 <main+0x3a4>)
    4bf6:	f7fd ff81 	bl	2afc <printf_>
    4bfa:	2101      	movs	r1, #1
    4bfc:	2000      	movs	r0, #0
    4bfe:	f7fd fb19 	bl	2234 <region_copy_direct>
    4c02:	e003      	b.n	4c0c <main+0x268>
    4c04:	4851      	ldr	r0, [pc, #324]	@ (4d4c <main+0x3a8>)
    4c06:	e7f6      	b.n	4bf6 <main+0x252>
    4c08:	2f00      	cmp	r7, #0
    4c0a:	d1f6      	bne.n	4bfa <main+0x256>
    4c0c:	2101      	movs	r1, #1
    4c0e:	2000      	movs	r0, #0
    4c10:	f7fd fafa 	bl	2208 <region_remove>
    4c14:	7823      	ldrb	r3, [r4, #0]
    4c16:	2b02      	cmp	r3, #2
    4c18:	d088      	beq.n	4b2c <main+0x188>
    4c1a:	2002      	movs	r0, #2
    4c1c:	f7fc fd08 	bl	1630 <systick_delay>
    4c20:	f7fd fc3c 	bl	249c <region_get_entry>
    4c24:	0001      	movs	r1, r0
    4c26:	0004      	movs	r4, r0
    4c28:	4849      	ldr	r0, [pc, #292]	@ (4d50 <main+0x3ac>)
    4c2a:	f7fd ff67 	bl	2afc <printf_>
    4c2e:	2002      	movs	r0, #2
    4c30:	f7fc fcfe 	bl	1630 <systick_delay>
    4c34:	2501      	movs	r5, #1
    4c36:	f7ff fc41 	bl	44bc <board_fini>
    4c3a:	f385 8810 	msr	PRIMASK, r5
    4c3e:	f7fb fd0d 	bl	65c <__PC>
    4c42:	2280      	movs	r2, #128	@ 0x80
    4c44:	0003      	movs	r3, r0
    4c46:	0552      	lsls	r2, r2, #21
    4c48:	4013      	ands	r3, r2
    4c4a:	4259      	negs	r1, r3
    4c4c:	414b      	adcs	r3, r1
    4c4e:	2000      	movs	r0, #0
    4c50:	425b      	negs	r3, r3
    4c52:	4940      	ldr	r1, [pc, #256]	@ (4d54 <main+0x3b0>)
    4c54:	0f1b      	lsrs	r3, r3, #28
    4c56:	071b      	lsls	r3, r3, #28
    4c58:	185b      	adds	r3, r3, r1
    4c5a:	6819      	ldr	r1, [r3, #0]
    4c5c:	4a1a      	ldr	r2, [pc, #104]	@ (4cc8 <main+0x324>)
    4c5e:	4329      	orrs	r1, r5
    4c60:	6019      	str	r1, [r3, #0]
    4c62:	4b3d      	ldr	r3, [pc, #244]	@ (4d58 <main+0x3b4>)
    4c64:	493d      	ldr	r1, [pc, #244]	@ (4d5c <main+0x3b8>)
    4c66:	681b      	ldr	r3, [r3, #0]
    4c68:	6008      	str	r0, [r1, #0]
    4c6a:	302e      	adds	r0, #46	@ 0x2e
    4c6c:	60d0      	str	r0, [r2, #12]
    4c6e:	08db      	lsrs	r3, r3, #3
    4c70:	6054      	str	r4, [r2, #4]
    4c72:	6115      	str	r5, [r2, #16]
    4c74:	6910      	ldr	r0, [r2, #16]
    4c76:	b110      	cbz	r0, 4c7e <main+0x2da>
    4c78:	1e58      	subs	r0, r3, #1
    4c7a:	b95b      	cbnz	r3, 4c94 <main+0x2f0>
    4c7c:	6008      	str	r0, [r1, #0]
    4c7e:	2280      	movs	r2, #128	@ 0x80
    4c80:	2302      	movs	r3, #2
    4c82:	05d2      	lsls	r2, r2, #23
    4c84:	6891      	ldr	r1, [r2, #8]
    4c86:	430b      	orrs	r3, r1
    4c88:	6093      	str	r3, [r2, #8]
    4c8a:	e7fe      	b.n	4c8a <main+0x2e6>
    4c8c:	4834      	ldr	r0, [pc, #208]	@ (4d60 <main+0x3bc>)
    4c8e:	f7fd ff35 	bl	2afc <printf_>
    4c92:	e7bf      	b.n	4c14 <main+0x270>
    4c94:	0003      	movs	r3, r0
    4c96:	e7ed      	b.n	4c74 <main+0x2d0>
    4c98:	000052c1 			@ <UNDEFINED> instruction: 000052c1
    4c9c:	000052e9 			@ <UNDEFINED> instruction: 000052e9
    4ca0:	000052fe 	strdeq	r5, [r0], -lr
    4ca4:	0000530b 			@ <UNDEFINED> instruction: 0000530b
    4ca8:	000052c5 			@ <UNDEFINED> instruction: 000052c5
    4cac:	0000532f 			@ <UNDEFINED> instruction: 0000532f
    4cb0:	00005348 			@ <UNDEFINED> instruction: 00005348
    4cb4:	00005354 			@ <UNDEFINED> instruction: 00005354
    4cb8:	4002f000 			@ <UNDEFINED> instruction: 4002f000
    4cbc:	00005389 			@ <UNDEFINED> instruction: 00005389
    4cc0:	00b71b00 			@ <UNDEFINED> instruction: 00b71b00
    4cc4:	400000fc 	strdmi	r0, [r0], -ip
    4cc8:	4000c000 			@ <UNDEFINED> instruction: 4000c000
    4ccc:	00210800 			@ <UNDEFINED> instruction: 00210800
    4cd0:	0000539b 			@ <UNDEFINED> instruction: 0000539b
    4cd4:	000053b4 			@ <UNDEFINED> instruction: 000053b4
    4cd8:	000053c9 			@ <UNDEFINED> instruction: 000053c9
    4cdc:	000053f4 	strdeq	r5, [r0], -r4
    4ce0:	00005407 			@ <UNDEFINED> instruction: 00005407
    4ce4:	0000541d 			@ <UNDEFINED> instruction: 0000541d
    4ce8:	0000536e 			@ <UNDEFINED> instruction: 0000536e
    4cec:	000053de 	ldrdeq	r5, [r0], -lr
    4cf0:	00005445 			@ <UNDEFINED> instruction: 00005445
    4cf4:	200030ac 			@ <UNDEFINED> instruction: 200030ac
    4cf8:	000052b9 			@ <UNDEFINED> instruction: 000052b9
    4cfc:	00005449 			@ <UNDEFINED> instruction: 00005449
    4d00:	00005488 			@ <UNDEFINED> instruction: 00005488
    4d04:	000054d9 	ldrdeq	r5, [r0], -r9
    4d08:	000054fb 	strdeq	r5, [r0], -fp
    4d0c:	0000550a 			@ <UNDEFINED> instruction: 0000550a
    4d10:	00005652 			@ <UNDEFINED> instruction: 00005652
    4d14:	00004fda 	ldrdeq	r4, [r0], -sl
    4d18:	000054a4 			@ <UNDEFINED> instruction: 000054a4
    4d1c:	000054bd 			@ <UNDEFINED> instruction: 000054bd
    4d20:	000054e7 			@ <UNDEFINED> instruction: 000054e7
    4d24:	000054f2 	strdeq	r5, [r0], -r2
    4d28:	00005523 			@ <UNDEFINED> instruction: 00005523
    4d2c:	00005531 			@ <UNDEFINED> instruction: 00005531
    4d30:	000055a8 			@ <UNDEFINED> instruction: 000055a8
    4d34:	00005551 			@ <UNDEFINED> instruction: 00005551
    4d38:	00005571 			@ <UNDEFINED> instruction: 00005571
    4d3c:	00005591 			@ <UNDEFINED> instruction: 00005591
    4d40:	000055c6 			@ <UNDEFINED> instruction: 000055c6
    4d44:	000055d8 	ldrdeq	r5, [r0], -r8
    4d48:	000055f4 	strdeq	r5, [r0], -r4
    4d4c:	00005617 			@ <UNDEFINED> instruction: 00005617
    4d50:	00005665 			@ <UNDEFINED> instruction: 00005665
    4d54:	5000c000 			@ <UNDEFINED> instruction: 5000c000
    4d58:	20000c84 			@ <UNDEFINED> instruction: 20000c84
    4d5c:	20001060 			@ <UNDEFINED> instruction: 20001060
    4d60:	0000563c 			@ <UNDEFINED> instruction: 0000563c

00004d64 <__gnu_thumb1_case_sqi>:
    4d64:	b402      	push	{r1}
    4d66:	4671      	mov	r1, lr
    4d68:	0849      	lsrs	r1, r1, #1
    4d6a:	0049      	lsls	r1, r1, #1
    4d6c:	5609      	ldrsb	r1, [r1, r0]
    4d6e:	0049      	lsls	r1, r1, #1
    4d70:	448e      	add	lr, r1
    4d72:	bc02      	pop	{r1}
    4d74:	4770      	bx	lr
    4d76:	46c0      	nop			@ (mov r8, r8)

00004d78 <__gnu_thumb1_case_uqi>:
    4d78:	b402      	push	{r1}
    4d7a:	4671      	mov	r1, lr
    4d7c:	0849      	lsrs	r1, r1, #1
    4d7e:	0049      	lsls	r1, r1, #1
    4d80:	5c09      	ldrb	r1, [r1, r0]
    4d82:	0049      	lsls	r1, r1, #1
    4d84:	448e      	add	lr, r1
    4d86:	bc02      	pop	{r1}
    4d88:	4770      	bx	lr
    4d8a:	46c0      	nop			@ (mov r8, r8)

00004d8c <calloc>:
    4d8c:	b510      	push	{r4, lr}
    4d8e:	4b03      	ldr	r3, [pc, #12]	@ (4d9c <calloc+0x10>)
    4d90:	000a      	movs	r2, r1
    4d92:	0001      	movs	r1, r0
    4d94:	6818      	ldr	r0, [r3, #0]
    4d96:	f000 f803 	bl	4da0 <_calloc_r>
    4d9a:	bd10      	pop	{r4, pc}
    4d9c:	20000c00 			@ <UNDEFINED> instruction: 20000c00

00004da0 <_calloc_r>:
    4da0:	0c0b      	lsrs	r3, r1, #16
    4da2:	b570      	push	{r4, r5, r6, lr}
    4da4:	0c15      	lsrs	r5, r2, #16
    4da6:	b9eb      	cbnz	r3, 4de4 <_calloc_r+0x44>
    4da8:	b965      	cbnz	r5, 4dc4 <_calloc_r+0x24>
    4daa:	b289      	uxth	r1, r1
    4dac:	b294      	uxth	r4, r2
    4dae:	434c      	muls	r4, r1
    4db0:	0021      	movs	r1, r4
    4db2:	f7fb fb87 	bl	4c4 <_malloc_r>
    4db6:	0005      	movs	r5, r0
    4db8:	b1d0      	cbz	r0, 4df0 <_calloc_r+0x50>
    4dba:	0022      	movs	r2, r4
    4dbc:	2100      	movs	r1, #0
    4dbe:	f7fb fae5 	bl	38c <memset>
    4dc2:	e015      	b.n	4df0 <_calloc_r+0x50>
    4dc4:	1c2b      	adds	r3, r5, #0
    4dc6:	1c0c      	adds	r4, r1, #0
    4dc8:	b289      	uxth	r1, r1
    4dca:	b292      	uxth	r2, r2
    4dcc:	434a      	muls	r2, r1
    4dce:	b29b      	uxth	r3, r3
    4dd0:	b2a1      	uxth	r1, r4
    4dd2:	4359      	muls	r1, r3
    4dd4:	0c14      	lsrs	r4, r2, #16
    4dd6:	190c      	adds	r4, r1, r4
    4dd8:	0c23      	lsrs	r3, r4, #16
    4dda:	b933      	cbnz	r3, 4dea <_calloc_r+0x4a>
    4ddc:	0424      	lsls	r4, r4, #16
    4dde:	b292      	uxth	r2, r2
    4de0:	4314      	orrs	r4, r2
    4de2:	e7e5      	b.n	4db0 <_calloc_r+0x10>
    4de4:	b90d      	cbnz	r5, 4dea <_calloc_r+0x4a>
    4de6:	1c14      	adds	r4, r2, #0
    4de8:	e7ee      	b.n	4dc8 <_calloc_r+0x28>
    4dea:	230c      	movs	r3, #12
    4dec:	2500      	movs	r5, #0
    4dee:	6003      	str	r3, [r0, #0]
    4df0:	0028      	movs	r0, r5
    4df2:	bd70      	pop	{r4, r5, r6, pc}

00004df4 <malloc>:
    4df4:	b510      	push	{r4, lr}
    4df6:	4b03      	ldr	r3, [pc, #12]	@ (4e04 <malloc+0x10>)
    4df8:	0001      	movs	r1, r0
    4dfa:	6818      	ldr	r0, [r3, #0]
    4dfc:	f7fb fb62 	bl	4c4 <_malloc_r>
    4e00:	bd10      	pop	{r4, pc}
    4e02:	46c0      	nop			@ (mov r8, r8)
    4e04:	20000c00 			@ <UNDEFINED> instruction: 20000c00

00004e08 <free>:
    4e08:	b510      	push	{r4, lr}
    4e0a:	4b03      	ldr	r3, [pc, #12]	@ (4e18 <free+0x10>)
    4e0c:	0001      	movs	r1, r0
    4e0e:	6818      	ldr	r0, [r3, #0]
    4e10:	f7fb faee 	bl	3f0 <_free_r>
    4e14:	bd10      	pop	{r4, pc}
    4e16:	46c0      	nop			@ (mov r8, r8)
    4e18:	20000c00 			@ <UNDEFINED> instruction: 20000c00

00004e1c <memcmp>:
    4e1c:	b530      	push	{r4, r5, lr}
    4e1e:	2400      	movs	r4, #0
    4e20:	3901      	subs	r1, #1
    4e22:	42a2      	cmp	r2, r4
    4e24:	d101      	bne.n	4e2a <memcmp+0xe>
    4e26:	2000      	movs	r0, #0
    4e28:	e005      	b.n	4e36 <memcmp+0x1a>
    4e2a:	5d03      	ldrb	r3, [r0, r4]
    4e2c:	3401      	adds	r4, #1
    4e2e:	5d0d      	ldrb	r5, [r1, r4]
    4e30:	42ab      	cmp	r3, r5
    4e32:	d0f6      	beq.n	4e22 <memcmp+0x6>
    4e34:	1b58      	subs	r0, r3, r5
    4e36:	bd30      	pop	{r4, r5, pc}

00004e38 <memcpy>:
    4e38:	2300      	movs	r3, #0
    4e3a:	b510      	push	{r4, lr}
    4e3c:	429a      	cmp	r2, r3
    4e3e:	d100      	bne.n	4e42 <memcpy+0xa>
    4e40:	bd10      	pop	{r4, pc}
    4e42:	5ccc      	ldrb	r4, [r1, r3]
    4e44:	54c4      	strb	r4, [r0, r3]
    4e46:	3301      	adds	r3, #1
    4e48:	e7f8      	b.n	4e3c <memcpy+0x4>
	...

00004e4c <_exit>:
    4e4c:	e7fe      	b.n	4e4c <_exit>
    4e4e:	46c0      	nop			@ (mov r8, r8)
    4e50:	00000010 			@ <UNDEFINED> instruction: 00000010
    4e54:	00000011 			@ <UNDEFINED> instruction: 00000011
    4e58:	00000012 			@ <UNDEFINED> instruction: 00000012
    4e5c:	00000013 			@ <UNDEFINED> instruction: 00000013
    4e60:	00000014 			@ <UNDEFINED> instruction: 00000014
    4e64:	00000015 			@ <UNDEFINED> instruction: 00000015
    4e68:	00000048 			@ <UNDEFINED> instruction: 00000048
    4e6c:	00000058 			@ <UNDEFINED> instruction: 00000058
    4e70:	00005043 			@ <UNDEFINED> instruction: 00005043
    4e74:	00005046 			@ <UNDEFINED> instruction: 00005046
    4e78:	0000505a 			@ <UNDEFINED> instruction: 0000505a
    4e7c:	00005073 			@ <UNDEFINED> instruction: 00005073
    4e80:	00005090 			@ <UNDEFINED> instruction: 00005090
    4e84:	000050a2 			@ <UNDEFINED> instruction: 000050a2
    4e88:	00000000 			@ <UNDEFINED> instruction: 00000000
    4e8c:	2b02efa2 			@ <UNDEFINED> instruction: 2b02efa2
    4e90:	86cc415b 			@ <UNDEFINED> instruction: 86cc415b
    4e94:	a7701c62 			@ <UNDEFINED> instruction: a7701c62
    4e98:	5ea5aa04 	vfmapl.f32	s20, s10, s8
    4e9c:	938376ea 			@ <UNDEFINED> instruction: 938376ea
    4ea0:	a63dc070 			@ <UNDEFINED> instruction: a63dc070
    4ea4:	908abfa1 			@ <UNDEFINED> instruction: 908abfa1
    4ea8:	91282cc6 			@ <UNDEFINED> instruction: 91282cc6
	...
    4ecc:	00b71b00 			@ <UNDEFINED> instruction: 00b71b00
    4ed0:	00008000 			@ <UNDEFINED> instruction: 00008000
    4ed4:	00000000 			@ <UNDEFINED> instruction: 00000000
    4ed8:	00007d00 			@ <UNDEFINED> instruction: 00007d00
    4edc:	00000000 			@ <UNDEFINED> instruction: 00000000
    4ee0:	02dc6c00 			@ <UNDEFINED> instruction: 02dc6c00
    4ee4:	003d0900 			@ <UNDEFINED> instruction: 003d0900
    4ee8:	00b71b00 			@ <UNDEFINED> instruction: 00b71b00
    4eec:	00000000 			@ <UNDEFINED> instruction: 00000000
    4ef0:	00000004 			@ <UNDEFINED> instruction: 00000004
    4ef4:	00000008 			@ <UNDEFINED> instruction: 00000008
    4ef8:	0000000c 			@ <UNDEFINED> instruction: 0000000c
    4efc:	00000000 			@ <UNDEFINED> instruction: 00000000
    4f00:	00000004 			@ <UNDEFINED> instruction: 00000004
    4f04:	00000008 			@ <UNDEFINED> instruction: 00000008
    4f08:	00000010 			@ <UNDEFINED> instruction: 00000010
    4f0c:	00000004 			@ <UNDEFINED> instruction: 00000004
    4f10:	00000006 			@ <UNDEFINED> instruction: 00000006
    4f14:	00000006 			@ <UNDEFINED> instruction: 00000006
    4f18:	00000007 			@ <UNDEFINED> instruction: 00000007
    4f1c:	00000008 			@ <UNDEFINED> instruction: 00000008
    4f20:	00000008 			@ <UNDEFINED> instruction: 00000008
    4f24:	00000008 			@ <UNDEFINED> instruction: 00000008
    4f28:	00000100 			@ <UNDEFINED> instruction: 00000100
    4f2c:	00000200 			@ <UNDEFINED> instruction: 00000200
    4f30:	00000300 			@ <UNDEFINED> instruction: 00000300
    4f34:	00000400 			@ <UNDEFINED> instruction: 00000400
    4f38:	00060004 			@ <UNDEFINED> instruction: 00060004
    4f3c:	00070006 			@ <UNDEFINED> instruction: 00070006
    4f40:	00080008 			@ <UNDEFINED> instruction: 00080008
    4f44:	00090008 			@ <UNDEFINED> instruction: 00090008
    4f48:	000d000c 			@ <UNDEFINED> instruction: 000d000c
    4f4c:	00110010 			@ <UNDEFINED> instruction: 00110010
    4f50:	00000012 			@ <UNDEFINED> instruction: 00000012
    4f54:	00000000 			@ <UNDEFINED> instruction: 00000000
    4f58:	00300020 			@ <UNDEFINED> instruction: 00300020
    4f5c:	00600040 			@ <UNDEFINED> instruction: 00600040
    4f60:	00000080 			@ <UNDEFINED> instruction: 00000080
    4f64:	00060004 			@ <UNDEFINED> instruction: 00060004
    4f68:	00070006 			@ <UNDEFINED> instruction: 00070006
    4f6c:	00080008 			@ <UNDEFINED> instruction: 00080008
    4f70:	00000008 			@ <UNDEFINED> instruction: 00000008
    4f74:	00b71b00 			@ <UNDEFINED> instruction: 00b71b00
    4f78:	00008000 			@ <UNDEFINED> instruction: 00008000
	...
    4f84:	003d0900 			@ <UNDEFINED> instruction: 003d0900
    4f88:	00007d00 			@ <UNDEFINED> instruction: 00007d00
    4f8c:	00000000 			@ <UNDEFINED> instruction: 00000000
    4f90:	00b71b00 			@ <UNDEFINED> instruction: 00b71b00
    4f94:	00b71b00 			@ <UNDEFINED> instruction: 00b71b00
    4f98:	00000000 			@ <UNDEFINED> instruction: 00000000
    4f9c:	00008000 			@ <UNDEFINED> instruction: 00008000
    4fa0:	00b71b00 			@ <UNDEFINED> instruction: 00b71b00
	...
    4fb4:	00004d8d 			@ <UNDEFINED> instruction: 00004d8d
    4fb8:	00004e09 			@ <UNDEFINED> instruction: 00004e09

00004fbc <qspi_mode>:
    4fbc:	00000004 			@ <UNDEFINED> instruction: 00000004
    4fc0:	00000002 			@ <UNDEFINED> instruction: 00000002
    4fc4:	0000000a 			@ <UNDEFINED> instruction: 0000000a
    4fc8:	0000000c 			@ <UNDEFINED> instruction: 0000000c
    4fcc:	61482020 			@ <UNDEFINED> instruction: 61482020
    4fd0:	61466472 			@ <UNDEFINED> instruction: 61466472
    4fd4:	21746c75 			@ <UNDEFINED> instruction: 21746c75
    4fd8:	72000a0a 			@ <UNDEFINED> instruction: 72000a0a
    4fdc:	3d202030 			@ <UNDEFINED> instruction: 3d202030
    4fe0:	25783020 			@ <UNDEFINED> instruction: 25783020
    4fe4:	000a786c 			@ <UNDEFINED> instruction: 000a786c
    4fe8:	20203172 			@ <UNDEFINED> instruction: 20203172
    4fec:	7830203d 			@ <UNDEFINED> instruction: 7830203d
    4ff0:	0a786c25 			@ <UNDEFINED> instruction: 0a786c25
    4ff4:	20327200 			@ <UNDEFINED> instruction: 20327200
    4ff8:	30203d20 			@ <UNDEFINED> instruction: 30203d20
    4ffc:	786c2578 			@ <UNDEFINED> instruction: 786c2578
    5000:	3372000a 			@ <UNDEFINED> instruction: 3372000a
    5004:	203d2020 			@ <UNDEFINED> instruction: 203d2020
    5008:	6c257830 			@ <UNDEFINED> instruction: 6c257830
    500c:	72000a78 			@ <UNDEFINED> instruction: 72000a78
    5010:	3d203231 			@ <UNDEFINED> instruction: 3d203231
    5014:	25783020 			@ <UNDEFINED> instruction: 25783020
    5018:	000a786c 			@ <UNDEFINED> instruction: 000a786c
    501c:	2020726c 			@ <UNDEFINED> instruction: 2020726c
    5020:	7830203d 			@ <UNDEFINED> instruction: 7830203d
    5024:	0a786c25 			@ <UNDEFINED> instruction: 0a786c25
    5028:	20637000 			@ <UNDEFINED> instruction: 20637000
    502c:	30203d20 			@ <UNDEFINED> instruction: 30203d20
    5030:	786c2578 			@ <UNDEFINED> instruction: 786c2578
    5034:	7370000a 			@ <UNDEFINED> instruction: 7370000a
    5038:	203d2072 			@ <UNDEFINED> instruction: 203d2072
    503c:	6c257830 			@ <UNDEFINED> instruction: 6c257830
    5040:	4f000a78 			@ <UNDEFINED> instruction: 4f000a78
    5044:	654c004b 			@ <UNDEFINED> instruction: 654c004b
    5048:	6874676e 			@ <UNDEFINED> instruction: 6874676e
    504c:	74756f20 			@ <UNDEFINED> instruction: 74756f20
    5050:	20666f20 			@ <UNDEFINED> instruction: 20666f20
    5054:	676e6172 			@ <UNDEFINED> instruction: 676e6172
    5058:	61700065 			@ <UNDEFINED> instruction: 61700065
    505c:	6e206567 			@ <UNDEFINED> instruction: 6e206567
    5060:	65626d75 			@ <UNDEFINED> instruction: 65626d75
    5064:	756f2072 			@ <UNDEFINED> instruction: 756f2072
    5068:	666f2074 			@ <UNDEFINED> instruction: 666f2074
    506c:	616e7220 			@ <UNDEFINED> instruction: 616e7220
    5070:	64006567 			@ <UNDEFINED> instruction: 64006567
    5074:	65666669 			@ <UNDEFINED> instruction: 65666669
    5078:	746e6572 			@ <UNDEFINED> instruction: 746e6572
    507c:	6f726620 			@ <UNDEFINED> instruction: 6f726620
    5080:	7473206d 			@ <UNDEFINED> instruction: 7473206d
    5084:	6465726f 			@ <UNDEFINED> instruction: 6465726f
    5088:	6e656c20 			@ <UNDEFINED> instruction: 6e656c20
    508c:	00687467 			@ <UNDEFINED> instruction: 00687467
    5090:	75706e49 			@ <UNDEFINED> instruction: 75706e49
    5094:	736d2074 			@ <UNDEFINED> instruction: 736d2074
    5098:	73692067 			@ <UNDEFINED> instruction: 73692067
    509c:	4c554e20 	mrrcmi	14, 2, r4, r5, cr0
    50a0:	6e69004c 			@ <UNDEFINED> instruction: 6e69004c
    50a4:	20747570 			@ <UNDEFINED> instruction: 20747570
    50a8:	73736170 			@ <UNDEFINED> instruction: 73736170
    50ac:	64726f77 			@ <UNDEFINED> instruction: 64726f77
    50b0:	20736920 			@ <UNDEFINED> instruction: 20736920
    50b4:	4c4c554e 	mcrrmi	5, 4, r5, ip, cr14
    50b8:	746e6900 			@ <UNDEFINED> instruction: 746e6900
    50bc:	616e7265 			@ <UNDEFINED> instruction: 616e7265
    50c0:	7865006c 			@ <UNDEFINED> instruction: 7865006c
    50c4:	6e726574 			@ <UNDEFINED> instruction: 6e726574
    50c8:	42006c61 			@ <UNDEFINED> instruction: 42006c61
    50cc:	306b6e61 			@ <UNDEFINED> instruction: 306b6e61
    50d0:	204c4220 			@ <UNDEFINED> instruction: 204c4220
    50d4:	7325203a 			@ <UNDEFINED> instruction: 7325203a
    50d8:	6461202c 			@ <UNDEFINED> instruction: 6461202c
    50dc:	30287264 			@ <UNDEFINED> instruction: 30287264
    50e0:	38302578 			@ <UNDEFINED> instruction: 38302578
    50e4:	2c29586c 			@ <UNDEFINED> instruction: 2c29586c
    50e8:	78616d20 			@ <UNDEFINED> instruction: 78616d20
    50ec:	657a6973 			@ <UNDEFINED> instruction: 657a6973
    50f0:	25783028 			@ <UNDEFINED> instruction: 25783028
    50f4:	586c3830 			@ <UNDEFINED> instruction: 586c3830
    50f8:	42000a29 			@ <UNDEFINED> instruction: 42000a29
    50fc:	306b6e61 			@ <UNDEFINED> instruction: 306b6e61
    5100:	20205320 			@ <UNDEFINED> instruction: 20205320
    5104:	7325203a 			@ <UNDEFINED> instruction: 7325203a
    5108:	6468202c 			@ <UNDEFINED> instruction: 6468202c
    510c:	78302872 			@ <UNDEFINED> instruction: 78302872
    5110:	6c383025 			@ <UNDEFINED> instruction: 6c383025
    5114:	202c2958 			@ <UNDEFINED> instruction: 202c2958
    5118:	72646461 			@ <UNDEFINED> instruction: 72646461
    511c:	25783028 			@ <UNDEFINED> instruction: 25783028
    5120:	586c3830 			@ <UNDEFINED> instruction: 586c3830
    5124:	6d202c29 			@ <UNDEFINED> instruction: 6d202c29
    5128:	69737861 			@ <UNDEFINED> instruction: 69737861
    512c:	3028657a 			@ <UNDEFINED> instruction: 3028657a
    5130:	38302578 			@ <UNDEFINED> instruction: 38302578
    5134:	0a29586c 			@ <UNDEFINED> instruction: 0a29586c
    5138:	6e614200 			@ <UNDEFINED> instruction: 6e614200
    513c:	4e20306b 			@ <UNDEFINED> instruction: 4e20306b
    5140:	203a2053 			@ <UNDEFINED> instruction: 203a2053
    5144:	202c7325 			@ <UNDEFINED> instruction: 202c7325
    5148:	28726468 			@ <UNDEFINED> instruction: 28726468
    514c:	30257830 			@ <UNDEFINED> instruction: 30257830
    5150:	29586c38 			@ <UNDEFINED> instruction: 29586c38
    5154:	6461202c 			@ <UNDEFINED> instruction: 6461202c
    5158:	30287264 			@ <UNDEFINED> instruction: 30287264
    515c:	38302578 			@ <UNDEFINED> instruction: 38302578
    5160:	2c29586c 			@ <UNDEFINED> instruction: 2c29586c
    5164:	78616d20 			@ <UNDEFINED> instruction: 78616d20
    5168:	657a6973 			@ <UNDEFINED> instruction: 657a6973
    516c:	25783028 			@ <UNDEFINED> instruction: 25783028
    5170:	586c3830 			@ <UNDEFINED> instruction: 586c3830
    5174:	42000a29 			@ <UNDEFINED> instruction: 42000a29
    5178:	306b6e61 			@ <UNDEFINED> instruction: 306b6e61
    517c:	6e203a20 	vmulvs.f32	s6, s0, s1
    5180:	0a656e6f 			@ <UNDEFINED> instruction: 0a656e6f
    5184:	6e614200 			@ <UNDEFINED> instruction: 6e614200
    5188:	4220316b 			@ <UNDEFINED> instruction: 4220316b
    518c:	203a204c 			@ <UNDEFINED> instruction: 203a204c
    5190:	202c7325 			@ <UNDEFINED> instruction: 202c7325
    5194:	72646461 			@ <UNDEFINED> instruction: 72646461
    5198:	25783028 			@ <UNDEFINED> instruction: 25783028
    519c:	586c3830 			@ <UNDEFINED> instruction: 586c3830
    51a0:	6d202c29 			@ <UNDEFINED> instruction: 6d202c29
    51a4:	69737861 			@ <UNDEFINED> instruction: 69737861
    51a8:	3028657a 			@ <UNDEFINED> instruction: 3028657a
    51ac:	38302578 			@ <UNDEFINED> instruction: 38302578
    51b0:	0a29586c 			@ <UNDEFINED> instruction: 0a29586c
    51b4:	6e614200 			@ <UNDEFINED> instruction: 6e614200
    51b8:	5320316b 			@ <UNDEFINED> instruction: 5320316b
    51bc:	203a2020 			@ <UNDEFINED> instruction: 203a2020
    51c0:	202c7325 			@ <UNDEFINED> instruction: 202c7325
    51c4:	28726468 			@ <UNDEFINED> instruction: 28726468
    51c8:	30257830 			@ <UNDEFINED> instruction: 30257830
    51cc:	29586c38 			@ <UNDEFINED> instruction: 29586c38
    51d0:	6461202c 			@ <UNDEFINED> instruction: 6461202c
    51d4:	30287264 			@ <UNDEFINED> instruction: 30287264
    51d8:	38302578 			@ <UNDEFINED> instruction: 38302578
    51dc:	2c29586c 			@ <UNDEFINED> instruction: 2c29586c
    51e0:	78616d20 			@ <UNDEFINED> instruction: 78616d20
    51e4:	657a6973 			@ <UNDEFINED> instruction: 657a6973
    51e8:	25783028 			@ <UNDEFINED> instruction: 25783028
    51ec:	586c3830 			@ <UNDEFINED> instruction: 586c3830
    51f0:	42000a29 			@ <UNDEFINED> instruction: 42000a29
    51f4:	316b6e61 			@ <UNDEFINED> instruction: 316b6e61
    51f8:	20534e20 			@ <UNDEFINED> instruction: 20534e20
    51fc:	7325203a 			@ <UNDEFINED> instruction: 7325203a
    5200:	6468202c 			@ <UNDEFINED> instruction: 6468202c
    5204:	78302872 			@ <UNDEFINED> instruction: 78302872
    5208:	6c383025 			@ <UNDEFINED> instruction: 6c383025
    520c:	202c2958 			@ <UNDEFINED> instruction: 202c2958
    5210:	72646461 			@ <UNDEFINED> instruction: 72646461
    5214:	25783028 			@ <UNDEFINED> instruction: 25783028
    5218:	586c3830 			@ <UNDEFINED> instruction: 586c3830
    521c:	6d202c29 			@ <UNDEFINED> instruction: 6d202c29
    5220:	69737861 			@ <UNDEFINED> instruction: 69737861
    5224:	3028657a 			@ <UNDEFINED> instruction: 3028657a
    5228:	38302578 			@ <UNDEFINED> instruction: 38302578
    522c:	0a29586c 			@ <UNDEFINED> instruction: 0a29586c
    5230:	6e614200 			@ <UNDEFINED> instruction: 6e614200
    5234:	3a20316b 			@ <UNDEFINED> instruction: 3a20316b
    5238:	6e6f6e20 			@ <UNDEFINED> instruction: 6e6f6e20
    523c:	76000a65 			@ <UNDEFINED> instruction: 76000a65
    5240:	2e302e32 			@ <UNDEFINED> instruction: 2e302e32
    5244:	30322830 			@ <UNDEFINED> instruction: 30322830
    5248:	32313532 			@ <UNDEFINED> instruction: 32313532
    524c:	313a3632 			@ <UNDEFINED> instruction: 313a3632
    5250:	32313435 			@ <UNDEFINED> instruction: 32313435
    5254:	6e002933 			@ <UNDEFINED> instruction: 6e002933
    5258:	00656e6f 			@ <UNDEFINED> instruction: 00656e6f
    525c:	2064746d 			@ <UNDEFINED> instruction: 2064746d
    5260:	6f666e69 			@ <UNDEFINED> instruction: 6f666e69
    5264:	29642528 			@ <UNDEFINED> instruction: 29642528
    5268:	2e25203a 			@ <UNDEFINED> instruction: 2e25203a
    526c:	2c733631 			@ <UNDEFINED> instruction: 2c733631
    5270:	7a697320 			@ <UNDEFINED> instruction: 7a697320
    5274:	203d2065 			@ <UNDEFINED> instruction: 203d2065
    5278:	6c257830 			@ <UNDEFINED> instruction: 6c257830
    527c:	25282078 			@ <UNDEFINED> instruction: 25282078
    5280:	694d646c 			@ <UNDEFINED> instruction: 694d646c
    5284:	202c2942 			@ <UNDEFINED> instruction: 202c2942
    5288:	73617265 			@ <UNDEFINED> instruction: 73617265
    528c:	7a697365 			@ <UNDEFINED> instruction: 7a697365
    5290:	203d2065 			@ <UNDEFINED> instruction: 203d2065
    5294:	6c257830 			@ <UNDEFINED> instruction: 6c257830
    5298:	6c252878 			@ <UNDEFINED> instruction: 6c252878
    529c:	42694b75 			@ <UNDEFINED> instruction: 42694b75
    52a0:	000a0d29 			@ <UNDEFINED> instruction: 000a0d29
    52a4:	6d007325 			@ <UNDEFINED> instruction: 6d007325
    52a8:	69206474 			@ <UNDEFINED> instruction: 69206474
    52ac:	206f666e 			@ <UNDEFINED> instruction: 206f666e
    52b0:	6f6e203a 			@ <UNDEFINED> instruction: 6f6e203a
    52b4:	0d0a656e 			@ <UNDEFINED> instruction: 0d0a656e
    52b8:	66656400 			@ <UNDEFINED> instruction: 66656400
    52bc:	746c7561 			@ <UNDEFINED> instruction: 746c7561
    52c0:	0d0a0d00 			@ <UNDEFINED> instruction: 0d0a0d00
    52c4:	2d2d2d0a 			@ <UNDEFINED> instruction: 2d2d2d0a
    52c8:	2d2d2d2d 			@ <UNDEFINED> instruction: 2d2d2d2d
    52cc:	2d2d2d2d 			@ <UNDEFINED> instruction: 2d2d2d2d
    52d0:	2d2d2d2d 			@ <UNDEFINED> instruction: 2d2d2d2d
    52d4:	2d2d2d2d 			@ <UNDEFINED> instruction: 2d2d2d2d
    52d8:	2d2d2d2d 			@ <UNDEFINED> instruction: 2d2d2d2d
    52dc:	2d2d2d2d 			@ <UNDEFINED> instruction: 2d2d2d2d
    52e0:	2d2d2d2d 			@ <UNDEFINED> instruction: 2d2d2d2d
    52e4:	0a0d2d2d 			@ <UNDEFINED> instruction: 0a0d2d2d
    52e8:	69784100 			@ <UNDEFINED> instruction: 69784100
    52ec:	6f42206f 			@ <UNDEFINED> instruction: 6f42206f
    52f0:	4d20746f 			@ <UNDEFINED> instruction: 4d20746f
    52f4:	67616e61 			@ <UNDEFINED> instruction: 67616e61
    52f8:	56207265 			@ <UNDEFINED> instruction: 56207265
    52fc:	207c0033 			@ <UNDEFINED> instruction: 207c0033
    5300:	322d2520 			@ <UNDEFINED> instruction: 322d2520
    5304:	7c207338 			@ <UNDEFINED> instruction: 7c207338
    5308:	7c000a0d 			@ <UNDEFINED> instruction: 7c000a0d
    530c:	65532020 			@ <UNDEFINED> instruction: 65532020
    5310:	69727563 			@ <UNDEFINED> instruction: 69727563
    5314:	6c507974 	mrrcvs	9, 7, r7, r0, cr4	@ <UNPREDICTABLE>
    5318:	6f667461 			@ <UNDEFINED> instruction: 6f667461
    531c:	49206d72 			@ <UNDEFINED> instruction: 49206d72
    5320:	202e636e 			@ <UNDEFINED> instruction: 202e636e
    5324:	20202020 			@ <UNDEFINED> instruction: 20202020
    5328:	7c202020 			@ <UNDEFINED> instruction: 7c202020
    532c:	42000a0d 			@ <UNDEFINED> instruction: 42000a0d
    5330:	4452414f 			@ <UNDEFINED> instruction: 4452414f
    5334:	4e45475f 			@ <UNDEFINED> instruction: 4e45475f
    5338:	43495245 	movtmi	r5, #37445	@ 0x9245
    533c:	33324d5f 			@ <UNDEFINED> instruction: 33324d5f
    5340:	4b5f3435 			@ <UNDEFINED> instruction: 4b5f3435
    5344:	00435150 			@ <UNDEFINED> instruction: 00435150
    5348:	72616f42 			@ <UNDEFINED> instruction: 72616f42
    534c:	203a2064 			@ <UNDEFINED> instruction: 203a2064
    5350:	000a7325 			@ <UNDEFINED> instruction: 000a7325
    5354:	746f6f42 			@ <UNDEFINED> instruction: 746f6f42
    5358:	6f724620 			@ <UNDEFINED> instruction: 6f724620
    535c:	4f52206d 			@ <UNDEFINED> instruction: 4f52206d
    5360:	203a204d 			@ <UNDEFINED> instruction: 203a204d
    5364:	62616e65 			@ <UNDEFINED> instruction: 62616e65
    5368:	0a64656c 			@ <UNDEFINED> instruction: 0a64656c
    536c:	6f42000d 			@ <UNDEFINED> instruction: 6f42000d
    5370:	4620746f 			@ <UNDEFINED> instruction: 4620746f
    5374:	206d6f72 			@ <UNDEFINED> instruction: 206d6f72
    5378:	204d4f52 			@ <UNDEFINED> instruction: 204d4f52
    537c:	6964203a 			@ <UNDEFINED> instruction: 6964203a
    5380:	6c626173 			@ <UNDEFINED> instruction: 6c626173
    5384:	0d0a6465 			@ <UNDEFINED> instruction: 0d0a6465
    5388:	42534e00 			@ <UNDEFINED> instruction: 42534e00
    538c:	73692041 			@ <UNDEFINED> instruction: 73692041
    5390:	746f6e20 			@ <UNDEFINED> instruction: 746f6e20
    5394:	74657320 			@ <UNDEFINED> instruction: 74657320
    5398:	4e000a0d 	vmlami.f32	s0, s0, s26
    539c:	20414253 			@ <UNDEFINED> instruction: 20414253
    53a0:	73207369 			@ <UNDEFINED> instruction: 73207369
    53a4:	74207465 			@ <UNDEFINED> instruction: 74207465
    53a8:	7830206f 			@ <UNDEFINED> instruction: 7830206f
    53ac:	0d786c25 			@ <UNDEFINED> instruction: 0d786c25
    53b0:	000a0d0a 			@ <UNDEFINED> instruction: 000a0d0a
    53b4:	6b6e6142 			@ <UNDEFINED> instruction: 6b6e6142
    53b8:	646f6d20 			@ <UNDEFINED> instruction: 646f6d20
    53bc:	203a2065 			@ <UNDEFINED> instruction: 203a2065
    53c0:	676e6973 			@ <UNDEFINED> instruction: 676e6973
    53c4:	0d0a656c 			@ <UNDEFINED> instruction: 0d0a656c
    53c8:	6c6f5200 			@ <UNDEFINED> instruction: 6c6f5200
    53cc:	61622d6c 			@ <UNDEFINED> instruction: 61622d6c
    53d0:	3a206b63 			@ <UNDEFINED> instruction: 3a206b63
    53d4:	616e6520 			@ <UNDEFINED> instruction: 616e6520
    53d8:	64656c62 			@ <UNDEFINED> instruction: 64656c62
    53dc:	6f52000a 			@ <UNDEFINED> instruction: 6f52000a
    53e0:	622d6c6c 			@ <UNDEFINED> instruction: 622d6c6c
    53e4:	206b6361 			@ <UNDEFINED> instruction: 206b6361
    53e8:	6964203a 			@ <UNDEFINED> instruction: 6964203a
    53ec:	6c626173 			@ <UNDEFINED> instruction: 6c626173
    53f0:	000a6465 			@ <UNDEFINED> instruction: 000a6465
    53f4:	72727543 			@ <UNDEFINED> instruction: 72727543
    53f8:	20746e65 			@ <UNDEFINED> instruction: 20746e65
    53fc:	6b6e6162 			@ <UNDEFINED> instruction: 6b6e6162
    5400:	25203a20 			@ <UNDEFINED> instruction: 25203a20
    5404:	43000a64 	movwmi	r0, #2660	@ 0xa64
    5408:	6b636568 			@ <UNDEFINED> instruction: 6b636568
    540c:	6e616220 			@ <UNDEFINED> instruction: 6e616220
    5410:	6461206b 			@ <UNDEFINED> instruction: 6461206b
    5414:	73657264 			@ <UNDEFINED> instruction: 73657264
    5418:	203a2073 			@ <UNDEFINED> instruction: 203a2073
    541c:	69616600 			@ <UNDEFINED> instruction: 69616600
    5420:	2064656c 			@ <UNDEFINED> instruction: 2064656c
    5424:	6f72570a 			@ <UNDEFINED> instruction: 6f72570a
    5428:	6220676e 			@ <UNDEFINED> instruction: 6220676e
    542c:	206b6e61 			@ <UNDEFINED> instruction: 206b6e61
    5430:	72646461 			@ <UNDEFINED> instruction: 72646461
    5434:	2e737365 			@ <UNDEFINED> instruction: 2e737365
    5438:	73655220 			@ <UNDEFINED> instruction: 73655220
    543c:	63207465 			@ <UNDEFINED> instruction: 63207465
    5440:	0a706968 			@ <UNDEFINED> instruction: 0a706968
    5444:	0a6b6f00 			@ <UNDEFINED> instruction: 0a6b6f00
    5448:	6d624100 			@ <UNDEFINED> instruction: 6d624100
    544c:	666e6f43 			@ <UNDEFINED> instruction: 666e6f43
    5450:	3a206769 			@ <UNDEFINED> instruction: 3a206769
    5454:	20732520 			@ <UNDEFINED> instruction: 20732520
    5458:	65646f6d 			@ <UNDEFINED> instruction: 65646f6d
    545c:	29642528 			@ <UNDEFINED> instruction: 29642528
    5460:	6175202c 			@ <UNDEFINED> instruction: 6175202c
    5464:	25287472 			@ <UNDEFINED> instruction: 25287472
    5468:	202c2964 			@ <UNDEFINED> instruction: 202c2964
    546c:	286f7477 			@ <UNDEFINED> instruction: 286f7477
    5470:	29646c25 			@ <UNDEFINED> instruction: 29646c25
    5474:	6573202c 			@ <UNDEFINED> instruction: 6573202c
    5478:	65727563 			@ <UNDEFINED> instruction: 65727563
    547c:	2c642528 			@ <UNDEFINED> instruction: 2c642528
    5480:	252c6425 			@ <UNDEFINED> instruction: 252c6425
    5484:	000a2964 			@ <UNDEFINED> instruction: 000a2964
    5488:	6f697841 			@ <UNDEFINED> instruction: 6f697841
    548c:	746f6f42 			@ <UNDEFINED> instruction: 746f6f42
    5490:	64616f4c 			@ <UNDEFINED> instruction: 64616f4c
    5494:	44207265 			@ <UNDEFINED> instruction: 44207265
    5498:	696c7075 			@ <UNDEFINED> instruction: 696c7075
    549c:	65746163 			@ <UNDEFINED> instruction: 65746163
    54a0:	00203a20 			@ <UNDEFINED> instruction: 00203a20
    54a4:	436d6241 			@ <UNDEFINED> instruction: 436d6241
    54a8:	69666e6f 			@ <UNDEFINED> instruction: 69666e6f
    54ac:	203a2067 			@ <UNDEFINED> instruction: 203a2067
    54b0:	20746f6e 			@ <UNDEFINED> instruction: 20746f6e
    54b4:	64616f6c 			@ <UNDEFINED> instruction: 64616f6c
    54b8:	0a206465 			@ <UNDEFINED> instruction: 0a206465
    54bc:	69724300 			@ <UNDEFINED> instruction: 69724300
    54c0:	61636974 			@ <UNDEFINED> instruction: 61636974
    54c4:	7265206c 			@ <UNDEFINED> instruction: 7265206c
    54c8:	20726f72 			@ <UNDEFINED> instruction: 20726f72
    54cc:	7563636f 			@ <UNDEFINED> instruction: 7563636f
    54d0:	20646572 			@ <UNDEFINED> instruction: 20646572
    54d4:	2e2e2e2e 			@ <UNDEFINED> instruction: 2e2e2e2e
    54d8:	726c6100 			@ <UNDEFINED> instruction: 726c6100
    54dc:	79646165 			@ <UNDEFINED> instruction: 79646165
    54e0:	6e6f6420 			@ <UNDEFINED> instruction: 6e6f6420
    54e4:	63000a65 	movwvs	r0, #2661	@ 0xa65
    54e8:	6c706d6f 			@ <UNDEFINED> instruction: 6c706d6f
    54ec:	64657465 			@ <UNDEFINED> instruction: 64657465
    54f0:	6f6e000a 			@ <UNDEFINED> instruction: 6f6e000a
    54f4:	6e696874 			@ <UNDEFINED> instruction: 6e696874
    54f8:	53000a67 	movwpl	r0, #2663	@ 0xa67
    54fc:	72756365 			@ <UNDEFINED> instruction: 72756365
    5500:	203a2065 			@ <UNDEFINED> instruction: 203a2065
    5504:	656e6f6e 			@ <UNDEFINED> instruction: 656e6f6e
    5508:	6c50000a 	mrrcvs	0, 0, r0, r0, cr10	@ <UNPREDICTABLE>
    550c:	65736165 			@ <UNDEFINED> instruction: 65736165
    5510:	776f6420 			@ <UNDEFINED> instruction: 776f6420
    5514:	616f6c6e 			@ <UNDEFINED> instruction: 616f6c6e
    5518:	65532064 			@ <UNDEFINED> instruction: 65532064
    551c:	65727563 			@ <UNDEFINED> instruction: 65727563
    5520:	53000a2e 	movwpl	r0, #2606	@ 0xa2e
    5524:	72756365 			@ <UNDEFINED> instruction: 72756365
    5528:	203a2065 			@ <UNDEFINED> instruction: 203a2065
    552c:	0a6c6c61 			@ <UNDEFINED> instruction: 0a6c6c61
    5530:	63655300 			@ <UNDEFINED> instruction: 63655300
    5534:	20657275 			@ <UNDEFINED> instruction: 20657275
    5538:	6b636162 			@ <UNDEFINED> instruction: 6b636162
    553c:	3a207075 			@ <UNDEFINED> instruction: 3a207075
    5540:	6e616220 			@ <UNDEFINED> instruction: 6e616220
    5544:	2d20306b 			@ <UNDEFINED> instruction: 2d20306b
    5548:	6162203e 			@ <UNDEFINED> instruction: 6162203e
    554c:	0a316b6e 			@ <UNDEFINED> instruction: 0a316b6e
    5550:	63655300 			@ <UNDEFINED> instruction: 63655300
    5554:	20657275 			@ <UNDEFINED> instruction: 20657275
    5558:	6f746572 			@ <UNDEFINED> instruction: 6f746572
    555c:	3a206572 			@ <UNDEFINED> instruction: 3a206572
    5560:	6e616220 			@ <UNDEFINED> instruction: 6e616220
    5564:	2d20316b 			@ <UNDEFINED> instruction: 2d20316b
    5568:	6162203e 			@ <UNDEFINED> instruction: 6162203e
    556c:	0a306b6e 			@ <UNDEFINED> instruction: 0a306b6e
    5570:	63655300 			@ <UNDEFINED> instruction: 63655300
    5574:	20657275 			@ <UNDEFINED> instruction: 20657275
    5578:	61647075 			@ <UNDEFINED> instruction: 61647075
    557c:	3a206574 			@ <UNDEFINED> instruction: 3a206574
    5580:	6e616220 			@ <UNDEFINED> instruction: 6e616220
    5584:	2d20316b 			@ <UNDEFINED> instruction: 2d20316b
    5588:	6162203e 			@ <UNDEFINED> instruction: 6162203e
    558c:	0a306b6e 			@ <UNDEFINED> instruction: 0a306b6e
    5590:	63655300 			@ <UNDEFINED> instruction: 63655300
    5594:	20657275 			@ <UNDEFINED> instruction: 20657275
    5598:	6f62203a 			@ <UNDEFINED> instruction: 6f62203a
    559c:	6261746f 			@ <UNDEFINED> instruction: 6261746f
    55a0:	2528656c 			@ <UNDEFINED> instruction: 2528656c
    55a4:	000a2964 			@ <UNDEFINED> instruction: 000a2964
    55a8:	736e6f4e 			@ <UNDEFINED> instruction: 736e6f4e
    55ac:	72756365 			@ <UNDEFINED> instruction: 72756365
    55b0:	65722065 			@ <UNDEFINED> instruction: 65722065
    55b4:	6e6f6967 			@ <UNDEFINED> instruction: 6e6f6967
    55b8:	61747320 			@ <UNDEFINED> instruction: 61747320
    55bc:	20737574 			@ <UNDEFINED> instruction: 20737574
    55c0:	6425203a 			@ <UNDEFINED> instruction: 6425203a
    55c4:	6f4e000a 			@ <UNDEFINED> instruction: 6f4e000a
    55c8:	6365736e 			@ <UNDEFINED> instruction: 6365736e
    55cc:	20657275 			@ <UNDEFINED> instruction: 20657275
    55d0:	6f6e203a 			@ <UNDEFINED> instruction: 6f6e203a
    55d4:	000a656e 			@ <UNDEFINED> instruction: 000a656e
    55d8:	61656c50 			@ <UNDEFINED> instruction: 61656c50
    55dc:	64206573 			@ <UNDEFINED> instruction: 64206573
    55e0:	6c6e776f 			@ <UNDEFINED> instruction: 6c6e776f
    55e4:	2064616f 			@ <UNDEFINED> instruction: 2064616f
    55e8:	536e6f4e 			@ <UNDEFINED> instruction: 536e6f4e
    55ec:	72756365 			@ <UNDEFINED> instruction: 72756365
    55f0:	000a2e65 			@ <UNDEFINED> instruction: 000a2e65
    55f4:	736e6f4e 			@ <UNDEFINED> instruction: 736e6f4e
    55f8:	72756365 			@ <UNDEFINED> instruction: 72756365
    55fc:	70752065 			@ <UNDEFINED> instruction: 70752065
    5600:	65746164 			@ <UNDEFINED> instruction: 65746164
    5604:	62203a20 			@ <UNDEFINED> instruction: 62203a20
    5608:	316b6e61 			@ <UNDEFINED> instruction: 316b6e61
    560c:	203e2d20 			@ <UNDEFINED> instruction: 203e2d20
    5610:	6b6e6162 			@ <UNDEFINED> instruction: 6b6e6162
    5614:	4e000a30 			@ <UNDEFINED> instruction: 4e000a30
    5618:	65736e6f 			@ <UNDEFINED> instruction: 65736e6f
    561c:	65727563 			@ <UNDEFINED> instruction: 65727563
    5620:	6c6f7220 			@ <UNDEFINED> instruction: 6c6f7220
    5624:	6361626c 			@ <UNDEFINED> instruction: 6361626c
    5628:	203a206b 			@ <UNDEFINED> instruction: 203a206b
    562c:	6b6e6162 			@ <UNDEFINED> instruction: 6b6e6162
    5630:	3e2d2031 			@ <UNDEFINED> instruction: 3e2d2031
    5634:	6e616220 			@ <UNDEFINED> instruction: 6e616220
    5638:	000a306b 			@ <UNDEFINED> instruction: 000a306b
    563c:	736e6f4e 			@ <UNDEFINED> instruction: 736e6f4e
    5640:	72756365 			@ <UNDEFINED> instruction: 72756365
    5644:	203a2065 			@ <UNDEFINED> instruction: 203a2065
    5648:	746f6f62 			@ <UNDEFINED> instruction: 746f6f62
    564c:	656c6261 			@ <UNDEFINED> instruction: 656c6261
    5650:	7055000a 			@ <UNDEFINED> instruction: 7055000a
    5654:	65746164 			@ <UNDEFINED> instruction: 65746164
    5658:	72687420 			@ <UNDEFINED> instruction: 72687420
    565c:	20646165 			@ <UNDEFINED> instruction: 20646165
    5660:	0a2e2e2e 			@ <UNDEFINED> instruction: 0a2e2e2e
    5664:	616f4c00 			@ <UNDEFINED> instruction: 616f4c00
    5668:	78412064 			@ <UNDEFINED> instruction: 78412064
    566c:	532d6f69 			@ <UNDEFINED> instruction: 532d6f69
    5670:	72756365 			@ <UNDEFINED> instruction: 72756365
    5674:	203a2065 			@ <UNDEFINED> instruction: 203a2065
    5678:	30257830 			@ <UNDEFINED> instruction: 30257830
    567c:	0a786c38 			@ <UNDEFINED> instruction: 0a786c38
    5680:	00000000 			@ <UNDEFINED> instruction: 00000000

00005684 <modtbl_timer>:
    5684:	40050000 			@ <UNDEFINED> instruction: 40050000
    5688:	5e800002 			@ <UNDEFINED> instruction: 5e800002
    568c:	00000200 			@ <UNDEFINED> instruction: 00000200
    5690:	00000000 			@ <UNDEFINED> instruction: 00000000
    5694:	04000002 			@ <UNDEFINED> instruction: 04000002
    5698:	00000020 			@ <UNDEFINED> instruction: 00000020
    569c:	40050100 			@ <UNDEFINED> instruction: 40050100
    56a0:	5ec00003 			@ <UNDEFINED> instruction: 5ec00003
    56a4:	00002000 			@ <UNDEFINED> instruction: 00002000
    56a8:	00000000 			@ <UNDEFINED> instruction: 00000000
    56ac:	04000003 			@ <UNDEFINED> instruction: 04000003
    56b0:	00000021 			@ <UNDEFINED> instruction: 00000021
	...

0000572c <modtbl_qspi>:
    572c:	40060000 			@ <UNDEFINED> instruction: 40060000
    5730:	6620000c 			@ <UNDEFINED> instruction: 6620000c
    5734:	00000008 			@ <UNDEFINED> instruction: 00000008
    5738:	00000000 			@ <UNDEFINED> instruction: 00000000
    573c:	0400000c 			@ <UNDEFINED> instruction: 0400000c
    5740:	00000016 			@ <UNDEFINED> instruction: 00000016
	...

0000575c <modtbl_spi>:
    575c:	40061000 			@ <UNDEFINED> instruction: 40061000
    5760:	6640000d 			@ <UNDEFINED> instruction: 6640000d
    5764:	00000020 			@ <UNDEFINED> instruction: 00000020
    5768:	00000000 			@ <UNDEFINED> instruction: 00000000
    576c:	0400000d 			@ <UNDEFINED> instruction: 0400000d
    5770:	00000017 			@ <UNDEFINED> instruction: 00000017
	...

000057d4 <modtbl_uart>:
    57d4:	40070000 			@ <UNDEFINED> instruction: 40070000
    57d8:	6f003d10 			@ <UNDEFINED> instruction: 6f003d10
    57dc:	00010000 			@ <UNDEFINED> instruction: 00010000
    57e0:	00000000 			@ <UNDEFINED> instruction: 00000000
    57e4:	04000010 			@ <UNDEFINED> instruction: 04000010
    57e8:	00000024 			@ <UNDEFINED> instruction: 00000024
	...

0000587c <pin_af_qspi_sclk>:
    587c:	40060000 			@ <UNDEFINED> instruction: 40060000
    5880:	40004002 			@ <UNDEFINED> instruction: 40004002
    5884:	00000300 			@ <UNDEFINED> instruction: 00000300
	...

00005894 <pin_af_qspi_ssel>:
    5894:	40060000 			@ <UNDEFINED> instruction: 40060000
    5898:	40004003 			@ <UNDEFINED> instruction: 40004003
    589c:	00003000 			@ <UNDEFINED> instruction: 00003000
	...

000058ac <pin_af_qspi_miso0>:
    58ac:	40060000 			@ <UNDEFINED> instruction: 40060000
    58b0:	40004001 			@ <UNDEFINED> instruction: 40004001
    58b4:	00000030 			@ <UNDEFINED> instruction: 00000030
	...

000058c4 <pin_af_qspi_mosi0>:
    58c4:	40060000 			@ <UNDEFINED> instruction: 40060000
    58c8:	40004000 			@ <UNDEFINED> instruction: 40004000
    58cc:	00000003 			@ <UNDEFINED> instruction: 00000003
	...

000058dc <pin_af_spi_ssel>:
    58dc:	40061000 			@ <UNDEFINED> instruction: 40061000
    58e0:	40004003 			@ <UNDEFINED> instruction: 40004003
    58e4:	00004000 			@ <UNDEFINED> instruction: 00004000
	...

000058f4 <pin_af_spi_sclk>:
    58f4:	40061000 			@ <UNDEFINED> instruction: 40061000
    58f8:	40004002 			@ <UNDEFINED> instruction: 40004002
    58fc:	00000400 			@ <UNDEFINED> instruction: 00000400
	...

0000590c <pin_af_spi_miso>:
    590c:	40061000 			@ <UNDEFINED> instruction: 40061000
    5910:	40004001 			@ <UNDEFINED> instruction: 40004001
    5914:	00000040 			@ <UNDEFINED> instruction: 00000040
	...

00005924 <pin_af_spi_mosi>:
    5924:	40061000 			@ <UNDEFINED> instruction: 40061000
    5928:	40004000 			@ <UNDEFINED> instruction: 40004000
    592c:	00000004 			@ <UNDEFINED> instruction: 00000004
	...

0000593c <pin_af_uart_tx>:
    593c:	40070000 			@ <UNDEFINED> instruction: 40070000
    5940:	40004007 			@ <UNDEFINED> instruction: 40004007
    5944:	70000000 			@ <UNDEFINED> instruction: 70000000
	...

00005954 <pin_af_uart_rx>:
    5954:	40070000 			@ <UNDEFINED> instruction: 40070000
    5958:	40004006 			@ <UNDEFINED> instruction: 40004006
    595c:	07000000 			@ <UNDEFINED> instruction: 07000000
	...

0000596c <spi_nor_mtd_operation>:
    596c:	00001a51 			@ <UNDEFINED> instruction: 00001a51
    5970:	00001b9d 			@ <UNDEFINED> instruction: 00001b9d
    5974:	00001713 			@ <UNDEFINED> instruction: 00001713
    5978:	000019cf 			@ <UNDEFINED> instruction: 000019cf

0000597c <spi_nor_ids>:
    597c:	7135326e 			@ <UNDEFINED> instruction: 7135326e
    5980:	61383231 			@ <UNDEFINED> instruction: 61383231
    5984:	00003331 			@ <UNDEFINED> instruction: 00003331
    5988:	00000000 			@ <UNDEFINED> instruction: 00000000
    598c:	0018ba20 			@ <UNDEFINED> instruction: 0018ba20
    5990:	03000000 	movweq	r0, #0
    5994:	00010000 			@ <UNDEFINED> instruction: 00010000
    5998:	01000100 			@ <UNDEFINED> instruction: 01000100
    599c:	00010003 			@ <UNDEFINED> instruction: 00010003
    59a0:	20000c50 			@ <UNDEFINED> instruction: 20000c50

000059a4 <default_spi_nor_ids>:
    59a4:	61666564 			@ <UNDEFINED> instruction: 61666564
    59a8:	00746c75 			@ <UNDEFINED> instruction: 00746c75
	...
    59bc:	00010000 			@ <UNDEFINED> instruction: 00010000
    59c0:	01000010 			@ <UNDEFINED> instruction: 01000010
    59c4:	00090003 			@ <UNDEFINED> instruction: 00090003
    59c8:	20000c50 			@ <UNDEFINED> instruction: 20000c50

000059cc <CSWTCH.32>:
    59cc:	040305ff 			@ <UNDEFINED> instruction: 040305ff
    59d0:	00000003 			@ <UNDEFINED> instruction: 00000003

000059d4 <extra_dev>:
	...
    59e0:	0001a000 			@ <UNDEFINED> instruction: 0001a000
    59e4:	20000c6c 			@ <UNDEFINED> instruction: 20000c6c
    59e8:	00000000 			@ <UNDEFINED> instruction: 00000000
    59ec:	0004f000 			@ <UNDEFINED> instruction: 0004f000
    59f0:	00000000 			@ <UNDEFINED> instruction: 00000000
    59f4:	00001000 			@ <UNDEFINED> instruction: 00001000
    59f8:	20000c6c 			@ <UNDEFINED> instruction: 20000c6c
    59fc:	0001b000 			@ <UNDEFINED> instruction: 0001b000
    5a00:	0001c000 			@ <UNDEFINED> instruction: 0001c000
    5a04:	00000000 			@ <UNDEFINED> instruction: 00000000
    5a08:	00033000 			@ <UNDEFINED> instruction: 00033000
    5a0c:	20000c6c 			@ <UNDEFINED> instruction: 20000c6c
    5a10:	00050000 			@ <UNDEFINED> instruction: 00050000
    5a14:	00051000 			@ <UNDEFINED> instruction: 00051000
    5a18:	00000000 			@ <UNDEFINED> instruction: 00000000
    5a1c:	000cf000 			@ <UNDEFINED> instruction: 000cf000
    5a20:	20000c6c 			@ <UNDEFINED> instruction: 20000c6c

00005a24 <boot_dev>:
	...
    5a30:	0001a000 			@ <UNDEFINED> instruction: 0001a000
    5a34:	20000c60 			@ <UNDEFINED> instruction: 20000c60
    5a38:	00000000 			@ <UNDEFINED> instruction: 00000000
    5a3c:	0004f000 			@ <UNDEFINED> instruction: 0004f000
    5a40:	00000000 			@ <UNDEFINED> instruction: 00000000
    5a44:	00001000 			@ <UNDEFINED> instruction: 00001000
    5a48:	20000c60 			@ <UNDEFINED> instruction: 20000c60
    5a4c:	0001b000 			@ <UNDEFINED> instruction: 0001b000
    5a50:	0001c000 			@ <UNDEFINED> instruction: 0001c000
    5a54:	00000000 			@ <UNDEFINED> instruction: 00000000
    5a58:	00033000 			@ <UNDEFINED> instruction: 00033000
    5a5c:	20000c60 			@ <UNDEFINED> instruction: 20000c60
    5a60:	00050000 			@ <UNDEFINED> instruction: 00050000
    5a64:	00051000 			@ <UNDEFINED> instruction: 00051000
    5a68:	00000000 			@ <UNDEFINED> instruction: 00000000
    5a6c:	000cf000 			@ <UNDEFINED> instruction: 000cf000
    5a70:	20000c60 			@ <UNDEFINED> instruction: 20000c60

00005a74 <numof_TIMER>:
    5a74:	00000001 			@ <UNDEFINED> instruction: 00000001

00005a78 <numof_SPI>:
    5a78:	00000001 			@ <UNDEFINED> instruction: 00000001

00005a7c <numof_UART>:
    5a7c:	00000001 			@ <UNDEFINED> instruction: 00000001

00005a80 <timer_config>:
    5a80:	40050000 			@ <UNDEFINED> instruction: 40050000
    5a84:	00000002 			@ <UNDEFINED> instruction: 00000002
    5a88:	00000001 			@ <UNDEFINED> instruction: 00000001

00005a8c <spi_nor_dev>:
	...
    5a98:	00000008 			@ <UNDEFINED> instruction: 00000008
    5a9c:	001e8480 			@ <UNDEFINED> instruction: 001e8480

00005aa0 <spi_config>:
    5aa0:	40061000 			@ <UNDEFINED> instruction: 40061000
    5aa4:	00000000 			@ <UNDEFINED> instruction: 00000000
    5aa8:	40004000 			@ <UNDEFINED> instruction: 40004000
    5aac:	40004001 			@ <UNDEFINED> instruction: 40004001
	...
    5ab8:	40004002 			@ <UNDEFINED> instruction: 40004002
    5abc:	00005ad0 	ldrdeq	r5, [r0], -r0
    5ac0:	00000001 			@ <UNDEFINED> instruction: 00000001
    5ac4:	00000001 			@ <UNDEFINED> instruction: 00000001
	...

00005ad0 <spi0_slave>:
    5ad0:	40004003 			@ <UNDEFINED> instruction: 40004003

00005ad4 <uart_stdio_dev>:
    5ad4:	00000000 			@ <UNDEFINED> instruction: 00000000

00005ad8 <uart_config>:
    5ad8:	40070000 			@ <UNDEFINED> instruction: 40070000
    5adc:	0001c200 			@ <UNDEFINED> instruction: 0001c200
    5ae0:	40004006 			@ <UNDEFINED> instruction: 40004006
    5ae4:	40004007 			@ <UNDEFINED> instruction: 40004007
	...

00005afc <__shell_command_end__>:
    5afc:	 			@ <UNDEFINED> instruction: 00000000

00005aff <__unprivileged_flash_end__>:
	...

Disassembly of section .ARM.exidx:

00005b00 <__exidx_end-0x8>:
    5b00:	7fffa7e8 			@ <UNDEFINED> instruction: 7fffa7e8
    5b04:	00000001 			@ <UNDEFINED> instruction: 00000001

Disassembly of section .copy.table:

00005b08 <__copy_table_start__>:
    5b08:	00005b1c 			@ <UNDEFINED> instruction: 00005b1c
    5b0c:	20000c00 			@ <UNDEFINED> instruction: 20000c00
    5b10:	0000011c 			@ <UNDEFINED> instruction: 0000011c

Disassembly of section .zero.table:

00005b14 <__zero_table_start__>:
    5b14:	20000d1c 			@ <UNDEFINED> instruction: 20000d1c
    5b18:	0000239c 			@ <UNDEFINED> instruction: 0000239c

Disassembly of section .data:

20000c00 <_impure_ptr>:
20000c00:	20000c04 			@ <UNDEFINED> instruction: 20000c04

20000c04 <_impure_data>:
20000c04:	00000000 			@ <UNDEFINED> instruction: 00000000
20000c08:	20000d38 			@ <UNDEFINED> instruction: 20000d38
20000c0c:	20000da0 			@ <UNDEFINED> instruction: 20000da0
20000c10:	20000e08 			@ <UNDEFINED> instruction: 20000e08
	...

20000c50 <opcode_default>:
20000c50:	7005069f 			@ <UNDEFINED> instruction: 7005069f
20000c54:	50300401 			@ <UNDEFINED> instruction: 50300401
20000c58:	20020b03 			@ <UNDEFINED> instruction: 20020b03
20000c5c:	ffc7d852 			@ <UNDEFINED> instruction: ffc7d852

20000c60 <internalflash_fop>:
20000c60:	00001275 			@ <UNDEFINED> instruction: 00001275
20000c64:	00001349 			@ <UNDEFINED> instruction: 00001349
20000c68:	00001189 			@ <UNDEFINED> instruction: 00001189

20000c6c <mtd_fop>:
20000c6c:	00001ec5 			@ <UNDEFINED> instruction: 00001ec5
20000c70:	00001ead 			@ <UNDEFINED> instruction: 00001ead
20000c74:	00001e91 			@ <UNDEFINED> instruction: 00001e91

20000c78 <heap_top>:
20000c78:	200030bc 			@ <UNDEFINED> instruction: 200030bc

20000c7c <PllClock>:
20000c7c:	02dc6c00 			@ <UNDEFINED> instruction: 02dc6c00

20000c80 <CyclesPerUs>:
20000c80:	00000030 			@ <UNDEFINED> instruction: 00000030

20000c84 <SystemCoreClock>:
20000c84:	02dc6c00 			@ <UNDEFINED> instruction: 02dc6c00

20000c88 <mtd0>:
20000c88:	20000cd8 	ldrdcs	r0, [r0], -r8
20000c8c:	0000596c 			@ <UNDEFINED> instruction: 0000596c
	...

20000cd8 <spi_nor_flash>:
20000cd8:	00000000 			@ <UNDEFINED> instruction: 00000000
20000cdc:	00005a8c 			@ <UNDEFINED> instruction: 00005a8c
	...

20000d0c <BANK>:
20000d0c:	00005a24 			@ <UNDEFINED> instruction: 00005a24
20000d10:	000059d4 	ldrdeq	r5, [r0], -r4

20000d14 <__frame_dummy_init_array_entry>:
20000d14:	000002c1 			@ <UNDEFINED> instruction: 000002c1

20000d18 <__do_global_dtors_aux_fini_array_entry>:
20000d18:	00000291 			@ <UNDEFINED> instruction: 00000291

Disassembly of section .ARM.attributes:

00000000 <.ARM.attributes>:
   0:	00002b41 			@ <UNDEFINED> instruction: 00002b41
   4:	61656100 			@ <UNDEFINED> instruction: 61656100
   8:	01006962 			@ <UNDEFINED> instruction: 01006962
   c:	00000021 			@ <UNDEFINED> instruction: 00000021
  10:	4d2d3805 			@ <UNDEFINED> instruction: 4d2d3805
  14:	5341422e 	movtpl	r4, #4654	@ 0x122e
  18:	10060045 			@ <UNDEFINED> instruction: 10060045
  1c:	03094d07 	movweq	r4, #40199	@ 0x9d07
  20:	01140412 			@ <UNDEFINED> instruction: 01140412
  24:	03170115 			@ <UNDEFINED> instruction: 03170115
  28:	011a0118 			@ <UNDEFINED> instruction: 011a0118

Disassembly of section .comment:

00000000 <.comment>:
   0:	3a434347 			@ <UNDEFINED> instruction: 3a434347
   4:	72412820 			@ <UNDEFINED> instruction: 72412820
   8:	4e47206d 			@ <UNDEFINED> instruction: 4e47206d
   c:	6f542055 			@ <UNDEFINED> instruction: 6f542055
  10:	68636c6f 			@ <UNDEFINED> instruction: 68636c6f
  14:	206e6961 			@ <UNDEFINED> instruction: 206e6961
  18:	332e3431 			@ <UNDEFINED> instruction: 332e3431
  1c:	6c65522e 			@ <UNDEFINED> instruction: 6c65522e
  20:	42282031 			@ <UNDEFINED> instruction: 42282031
  24:	646c6975 			@ <UNDEFINED> instruction: 646c6975
  28:	6d726120 			@ <UNDEFINED> instruction: 6d726120
  2c:	2e34312d 			@ <UNDEFINED> instruction: 2e34312d
  30:	29343731 			@ <UNDEFINED> instruction: 29343731
  34:	34312029 			@ <UNDEFINED> instruction: 34312029
  38:	312e332e 			@ <UNDEFINED> instruction: 312e332e
  3c:	32303220 			@ <UNDEFINED> instruction: 32303220
  40:	32363035 			@ <UNDEFINED> instruction: 32363035
  44:	Address 0x44 is out of bounds.


Disassembly of section .debug_line_str:

00000000 <.debug_line_str>:
   0:	7461642f 			@ <UNDEFINED> instruction: 7461642f
   4:	656a2f61 			@ <UNDEFINED> instruction: 656a2f61
   8:	6e696b6e 	vnmulvs.f64	d22, d9, d30
   c:	6f772f73 			@ <UNDEFINED> instruction: 6f772f73
  10:	70736b72 			@ <UNDEFINED> instruction: 70736b72
  14:	2f656361 			@ <UNDEFINED> instruction: 2f656361
  18:	2d554e47 			@ <UNDEFINED> instruction: 2d554e47
  1c:	6c6f6f74 			@ <UNDEFINED> instruction: 6c6f6f74
  20:	69616863 			@ <UNDEFINED> instruction: 69616863
  24:	72612f6e 			@ <UNDEFINED> instruction: 72612f6e
  28:	34312d6d 			@ <UNDEFINED> instruction: 34312d6d
  2c:	6975622f 			@ <UNDEFINED> instruction: 6975622f
  30:	612d646c 			@ <UNDEFINED> instruction: 612d646c
  34:	6e2d6d72 			@ <UNDEFINED> instruction: 6e2d6d72
  38:	2d656e6f 			@ <UNDEFINED> instruction: 2d656e6f
  3c:	69626165 			@ <UNDEFINED> instruction: 69626165
  40:	6a626f2f 			@ <UNDEFINED> instruction: 6a626f2f
  44:	77656e2f 			@ <UNDEFINED> instruction: 77656e2f
  48:	2d62696c 			@ <UNDEFINED> instruction: 2d62696c
  4c:	6f6e616e 			@ <UNDEFINED> instruction: 6f6e616e
  50:	6d72612f 			@ <UNDEFINED> instruction: 6d72612f
  54:	6e6f6e2d 			@ <UNDEFINED> instruction: 6e6f6e2d
  58:	61652d65 			@ <UNDEFINED> instruction: 61652d65
  5c:	742f6962 			@ <UNDEFINED> instruction: 742f6962
  60:	626d7568 			@ <UNDEFINED> instruction: 626d7568
  64:	2d38762f 			@ <UNDEFINED> instruction: 2d38762f
  68:	61622e6d 			@ <UNDEFINED> instruction: 61622e6d
  6c:	6e2f6573 			@ <UNDEFINED> instruction: 6e2f6573
  70:	2f70666f 			@ <UNDEFINED> instruction: 2f70666f
  74:	6762696c 			@ <UNDEFINED> instruction: 6762696c
  78:	73736f6c 			@ <UNDEFINED> instruction: 73736f6c
  7c:	61642f00 			@ <UNDEFINED> instruction: 61642f00
  80:	6a2f6174 			@ <UNDEFINED> instruction: 6a2f6174
  84:	696b6e65 			@ <UNDEFINED> instruction: 696b6e65
  88:	772f736e 			@ <UNDEFINED> instruction: 772f736e
  8c:	736b726f 			@ <UNDEFINED> instruction: 736b726f
  90:	65636170 			@ <UNDEFINED> instruction: 65636170
  94:	554e472f 			@ <UNDEFINED> instruction: 554e472f
  98:	6f6f742d 			@ <UNDEFINED> instruction: 6f6f742d
  9c:	6168636c 			@ <UNDEFINED> instruction: 6168636c
  a0:	612f6e69 			@ <UNDEFINED> instruction: 612f6e69
  a4:	312d6d72 			@ <UNDEFINED> instruction: 312d6d72
  a8:	72732f34 			@ <UNDEFINED> instruction: 72732f34
  ac:	656e2f63 			@ <UNDEFINED> instruction: 656e2f63
  b0:	62696c77 			@ <UNDEFINED> instruction: 62696c77
  b4:	6779632d 			@ <UNDEFINED> instruction: 6779632d
  b8:	2f6e6977 			@ <UNDEFINED> instruction: 2f6e6977
  bc:	6762696c 			@ <UNDEFINED> instruction: 6762696c
  c0:	73736f6c 			@ <UNDEFINED> instruction: 73736f6c
  c4:	6d72612f 			@ <UNDEFINED> instruction: 6d72612f
  c8:	74726300 			@ <UNDEFINED> instruction: 74726300
  cc:	00532e30 			@ <UNDEFINED> instruction: 00532e30
  d0:	7461642f 			@ <UNDEFINED> instruction: 7461642f
  d4:	656a2f61 			@ <UNDEFINED> instruction: 656a2f61
  d8:	6e696b6e 	vnmulvs.f64	d22, d9, d30
  dc:	6f772f73 			@ <UNDEFINED> instruction: 6f772f73
  e0:	70736b72 			@ <UNDEFINED> instruction: 70736b72
  e4:	2f656361 			@ <UNDEFINED> instruction: 2f656361
  e8:	2d554e47 			@ <UNDEFINED> instruction: 2d554e47
  ec:	6c6f6f74 			@ <UNDEFINED> instruction: 6c6f6f74
  f0:	69616863 			@ <UNDEFINED> instruction: 69616863
  f4:	72612f6e 			@ <UNDEFINED> instruction: 72612f6e
  f8:	34312d6d 			@ <UNDEFINED> instruction: 34312d6d
  fc:	6975622f 			@ <UNDEFINED> instruction: 6975622f
 100:	612d646c 			@ <UNDEFINED> instruction: 612d646c
 104:	6e2d6d72 			@ <UNDEFINED> instruction: 6e2d6d72
 108:	2d656e6f 			@ <UNDEFINED> instruction: 2d656e6f
 10c:	69626165 			@ <UNDEFINED> instruction: 69626165
 110:	6a626f2f 			@ <UNDEFINED> instruction: 6a626f2f
 114:	6363672f 			@ <UNDEFINED> instruction: 6363672f
 118:	72612f32 			@ <UNDEFINED> instruction: 72612f32
 11c:	6f6e2d6d 			@ <UNDEFINED> instruction: 6f6e2d6d
 120:	652d656e 			@ <UNDEFINED> instruction: 652d656e
 124:	2f696261 			@ <UNDEFINED> instruction: 2f696261
 128:	6d756874 			@ <UNDEFINED> instruction: 6d756874
 12c:	38762f62 			@ <UNDEFINED> instruction: 38762f62
 130:	622e6d2d 			@ <UNDEFINED> instruction: 622e6d2d
 134:	2f657361 			@ <UNDEFINED> instruction: 2f657361
 138:	70666f6e 			@ <UNDEFINED> instruction: 70666f6e
 13c:	62696c2f 			@ <UNDEFINED> instruction: 62696c2f
 140:	00636367 			@ <UNDEFINED> instruction: 00636367
 144:	7461642f 			@ <UNDEFINED> instruction: 7461642f
 148:	656a2f61 			@ <UNDEFINED> instruction: 656a2f61
 14c:	6e696b6e 	vnmulvs.f64	d22, d9, d30
 150:	6f772f73 			@ <UNDEFINED> instruction: 6f772f73
 154:	70736b72 			@ <UNDEFINED> instruction: 70736b72
 158:	2f656361 			@ <UNDEFINED> instruction: 2f656361
 15c:	2d554e47 			@ <UNDEFINED> instruction: 2d554e47
 160:	6c6f6f74 			@ <UNDEFINED> instruction: 6c6f6f74
 164:	69616863 			@ <UNDEFINED> instruction: 69616863
 168:	72612f6e 			@ <UNDEFINED> instruction: 72612f6e
 16c:	34312d6d 			@ <UNDEFINED> instruction: 34312d6d
 170:	6372732f 			@ <UNDEFINED> instruction: 6372732f
 174:	6363672f 			@ <UNDEFINED> instruction: 6363672f
 178:	62696c2f 			@ <UNDEFINED> instruction: 62696c2f
 17c:	2f636367 			@ <UNDEFINED> instruction: 2f636367
 180:	666e6f63 			@ <UNDEFINED> instruction: 666e6f63
 184:	612f6769 			@ <UNDEFINED> instruction: 612f6769
 188:	6c006d72 			@ <UNDEFINED> instruction: 6c006d72
 18c:	66316269 			@ <UNDEFINED> instruction: 66316269
 190:	73636e75 			@ <UNDEFINED> instruction: 73636e75
 194:	Address 0x194 is out of bounds.


Disassembly of section .debug_frame:

00000000 <.debug_frame>:
   0:	0000000c 			@ <UNDEFINED> instruction: 0000000c
   4:	ffffffff 			@ <UNDEFINED> instruction: ffffffff
   8:	7c020001 			@ <UNDEFINED> instruction: 7c020001
   c:	000d0c0e 			@ <UNDEFINED> instruction: 000d0c0e
  10:	00000014 			@ <UNDEFINED> instruction: 00000014
  14:	00000000 			@ <UNDEFINED> instruction: 00000000
  18:	00000368 			@ <UNDEFINED> instruction: 00000368
  1c:	00000024 			@ <UNDEFINED> instruction: 00000024
  20:	84080e42 			@ <UNDEFINED> instruction: 84080e42
  24:	00018e02 			@ <UNDEFINED> instruction: 00018e02
  28:	0000000c 			@ <UNDEFINED> instruction: 0000000c
  2c:	ffffffff 			@ <UNDEFINED> instruction: ffffffff
  30:	7c020001 			@ <UNDEFINED> instruction: 7c020001
  34:	000d0c0e 			@ <UNDEFINED> instruction: 000d0c0e
  38:	00000014 			@ <UNDEFINED> instruction: 00000014
  3c:	00000028 			@ <UNDEFINED> instruction: 00000028
  40:	00000000 			@ <UNDEFINED> instruction: 00000000
  44:	0000006c 			@ <UNDEFINED> instruction: 0000006c
  48:	84080e42 			@ <UNDEFINED> instruction: 84080e42
  4c:	00018e02 			@ <UNDEFINED> instruction: 00018e02
  50:	00000014 			@ <UNDEFINED> instruction: 00000014
  54:	00000028 			@ <UNDEFINED> instruction: 00000028
  58:	00000000 			@ <UNDEFINED> instruction: 00000000
  5c:	0000001c 			@ <UNDEFINED> instruction: 0000001c
  60:	84080e41 			@ <UNDEFINED> instruction: 84080e41
  64:	00018e02 			@ <UNDEFINED> instruction: 00018e02
  68:	00000014 			@ <UNDEFINED> instruction: 00000014
  6c:	00000028 			@ <UNDEFINED> instruction: 00000028
  70:	00000000 			@ <UNDEFINED> instruction: 00000000
  74:	0000003c 			@ <UNDEFINED> instruction: 0000003c
  78:	84080e43 			@ <UNDEFINED> instruction: 84080e43
  7c:	00018e02 			@ <UNDEFINED> instruction: 00018e02
  80:	00000014 			@ <UNDEFINED> instruction: 00000014
  84:	00000028 			@ <UNDEFINED> instruction: 00000028
  88:	00000000 			@ <UNDEFINED> instruction: 00000000
  8c:	00000018 			@ <UNDEFINED> instruction: 00000018
  90:	84080e42 			@ <UNDEFINED> instruction: 84080e42
  94:	00018e02 			@ <UNDEFINED> instruction: 00018e02
  98:	00000014 			@ <UNDEFINED> instruction: 00000014
  9c:	00000028 			@ <UNDEFINED> instruction: 00000028
  a0:	00000000 			@ <UNDEFINED> instruction: 00000000
  a4:	00000018 			@ <UNDEFINED> instruction: 00000018
  a8:	84080e42 			@ <UNDEFINED> instruction: 84080e42
  ac:	00018e02 			@ <UNDEFINED> instruction: 00018e02
  b0:	00000014 			@ <UNDEFINED> instruction: 00000014
  b4:	00000028 			@ <UNDEFINED> instruction: 00000028
  b8:	00000000 			@ <UNDEFINED> instruction: 00000000
  bc:	0000003c 			@ <UNDEFINED> instruction: 0000003c
  c0:	84080e41 			@ <UNDEFINED> instruction: 84080e41
  c4:	00018e02 			@ <UNDEFINED> instruction: 00018e02
  c8:	00000014 			@ <UNDEFINED> instruction: 00000014
  cc:	00000028 			@ <UNDEFINED> instruction: 00000028
  d0:	00000000 			@ <UNDEFINED> instruction: 00000000
  d4:	00000010 			@ <UNDEFINED> instruction: 00000010
  d8:	84080e41 			@ <UNDEFINED> instruction: 84080e41
  dc:	00018e02 			@ <UNDEFINED> instruction: 00018e02
  e0:	00000014 			@ <UNDEFINED> instruction: 00000014
  e4:	00000028 			@ <UNDEFINED> instruction: 00000028
  e8:	00000000 			@ <UNDEFINED> instruction: 00000000
  ec:	00000010 			@ <UNDEFINED> instruction: 00000010
  f0:	84080e41 			@ <UNDEFINED> instruction: 84080e41
  f4:	00018e02 			@ <UNDEFINED> instruction: 00018e02
  f8:	0000001c 			@ <UNDEFINED> instruction: 0000001c
  fc:	00000028 			@ <UNDEFINED> instruction: 00000028
 100:	00000000 			@ <UNDEFINED> instruction: 00000000
 104:	000000a4 			@ <UNDEFINED> instruction: 000000a4
 108:	83180e41 			@ <UNDEFINED> instruction: 83180e41
 10c:	85058406 			@ <UNDEFINED> instruction: 85058406
 110:	87038604 			@ <UNDEFINED> instruction: 87038604
 114:	00018e02 			@ <UNDEFINED> instruction: 00018e02
 118:	00000014 			@ <UNDEFINED> instruction: 00000014
 11c:	00000028 			@ <UNDEFINED> instruction: 00000028
 120:	00000000 			@ <UNDEFINED> instruction: 00000000
 124:	0000002c 			@ <UNDEFINED> instruction: 0000002c
 128:	84080e41 			@ <UNDEFINED> instruction: 84080e41
 12c:	00018e02 			@ <UNDEFINED> instruction: 00018e02
 130:	00000014 			@ <UNDEFINED> instruction: 00000014
 134:	00000028 			@ <UNDEFINED> instruction: 00000028
 138:	00000000 			@ <UNDEFINED> instruction: 00000000
 13c:	0000001c 			@ <UNDEFINED> instruction: 0000001c
 140:	84080e41 			@ <UNDEFINED> instruction: 84080e41
 144:	00018e02 			@ <UNDEFINED> instruction: 00018e02
 148:	00000014 			@ <UNDEFINED> instruction: 00000014
 14c:	00000028 			@ <UNDEFINED> instruction: 00000028
 150:	00000000 			@ <UNDEFINED> instruction: 00000000
 154:	0000001c 			@ <UNDEFINED> instruction: 0000001c
 158:	84080e41 			@ <UNDEFINED> instruction: 84080e41
 15c:	00018e02 			@ <UNDEFINED> instruction: 00018e02
 160:	0000000c 			@ <UNDEFINED> instruction: 0000000c
 164:	ffffffff 			@ <UNDEFINED> instruction: ffffffff
 168:	7c020001 			@ <UNDEFINED> instruction: 7c020001
 16c:	000d0c0e 			@ <UNDEFINED> instruction: 000d0c0e
 170:	0000000c 			@ <UNDEFINED> instruction: 0000000c
 174:	00000160 			@ <UNDEFINED> instruction: 00000160
 178:	0000038c 			@ <UNDEFINED> instruction: 0000038c
 17c:	00000010 			@ <UNDEFINED> instruction: 00000010
 180:	0000000c 			@ <UNDEFINED> instruction: 0000000c
 184:	ffffffff 			@ <UNDEFINED> instruction: ffffffff
 188:	7c020001 			@ <UNDEFINED> instruction: 7c020001
 18c:	000d0c0e 			@ <UNDEFINED> instruction: 000d0c0e
 190:	00000018 			@ <UNDEFINED> instruction: 00000018
 194:	00000180 			@ <UNDEFINED> instruction: 00000180
 198:	00000000 			@ <UNDEFINED> instruction: 00000000
 19c:	000000b8 			@ <UNDEFINED> instruction: 000000b8
 1a0:	84100e42 			@ <UNDEFINED> instruction: 84100e42
 1a4:	86038504 			@ <UNDEFINED> instruction: 86038504
 1a8:	00018e02 			@ <UNDEFINED> instruction: 00018e02
 1ac:	0000000c 			@ <UNDEFINED> instruction: 0000000c
 1b0:	ffffffff 			@ <UNDEFINED> instruction: ffffffff
 1b4:	7c020001 			@ <UNDEFINED> instruction: 7c020001
 1b8:	000d0c0e 			@ <UNDEFINED> instruction: 000d0c0e
 1bc:	00000018 			@ <UNDEFINED> instruction: 00000018
 1c0:	000001ac 			@ <UNDEFINED> instruction: 000001ac
 1c4:	0000039c 			@ <UNDEFINED> instruction: 0000039c
 1c8:	00000050 			@ <UNDEFINED> instruction: 00000050
 1cc:	84100e41 			@ <UNDEFINED> instruction: 84100e41
 1d0:	86038504 			@ <UNDEFINED> instruction: 86038504
 1d4:	00018e02 			@ <UNDEFINED> instruction: 00018e02
 1d8:	0000000c 			@ <UNDEFINED> instruction: 0000000c
 1dc:	ffffffff 			@ <UNDEFINED> instruction: ffffffff
 1e0:	7c020001 			@ <UNDEFINED> instruction: 7c020001
 1e4:	000d0c0e 			@ <UNDEFINED> instruction: 000d0c0e
 1e8:	0000000c 			@ <UNDEFINED> instruction: 0000000c
 1ec:	000001d8 	ldrdeq	r0, [r0], -r8
 1f0:	00000000 			@ <UNDEFINED> instruction: 00000000
 1f4:	00000002 			@ <UNDEFINED> instruction: 00000002
 1f8:	0000000c 			@ <UNDEFINED> instruction: 0000000c
 1fc:	000001d8 	ldrdeq	r0, [r0], -r8
 200:	00000000 			@ <UNDEFINED> instruction: 00000000
 204:	00000002 			@ <UNDEFINED> instruction: 00000002
 208:	0000000c 			@ <UNDEFINED> instruction: 0000000c
 20c:	000001d8 	ldrdeq	r0, [r0], -r8
 210:	00000000 			@ <UNDEFINED> instruction: 00000000
 214:	00000002 			@ <UNDEFINED> instruction: 00000002
 218:	0000000c 			@ <UNDEFINED> instruction: 0000000c
 21c:	000001d8 	ldrdeq	r0, [r0], -r8
 220:	00000000 			@ <UNDEFINED> instruction: 00000000
 224:	00000002 			@ <UNDEFINED> instruction: 00000002
 228:	0000000c 			@ <UNDEFINED> instruction: 0000000c
 22c:	000001d8 	ldrdeq	r0, [r0], -r8
 230:	00000000 			@ <UNDEFINED> instruction: 00000000
 234:	00000002 			@ <UNDEFINED> instruction: 00000002
 238:	0000000c 			@ <UNDEFINED> instruction: 0000000c
 23c:	000001d8 	ldrdeq	r0, [r0], -r8
 240:	000003ec 			@ <UNDEFINED> instruction: 000003ec
 244:	00000002 			@ <UNDEFINED> instruction: 00000002
 248:	0000000c 			@ <UNDEFINED> instruction: 0000000c
 24c:	000001d8 	ldrdeq	r0, [r0], -r8
 250:	00000000 			@ <UNDEFINED> instruction: 00000000
 254:	00000004 			@ <UNDEFINED> instruction: 00000004
 258:	0000000c 			@ <UNDEFINED> instruction: 0000000c
 25c:	000001d8 	ldrdeq	r0, [r0], -r8
 260:	00000000 			@ <UNDEFINED> instruction: 00000000
 264:	00000004 			@ <UNDEFINED> instruction: 00000004
 268:	0000000c 			@ <UNDEFINED> instruction: 0000000c
 26c:	000001d8 	ldrdeq	r0, [r0], -r8
 270:	00000000 			@ <UNDEFINED> instruction: 00000000
 274:	00000002 			@ <UNDEFINED> instruction: 00000002
 278:	0000000c 			@ <UNDEFINED> instruction: 0000000c
 27c:	000001d8 	ldrdeq	r0, [r0], -r8
 280:	000003ee 			@ <UNDEFINED> instruction: 000003ee
 284:	00000002 			@ <UNDEFINED> instruction: 00000002
 288:	0000000c 			@ <UNDEFINED> instruction: 0000000c
 28c:	ffffffff 			@ <UNDEFINED> instruction: ffffffff
 290:	7c020001 			@ <UNDEFINED> instruction: 7c020001
 294:	000d0c0e 			@ <UNDEFINED> instruction: 000d0c0e
 298:	00000018 			@ <UNDEFINED> instruction: 00000018
 29c:	00000288 			@ <UNDEFINED> instruction: 00000288
 2a0:	000003f0 	strdeq	r0, [r0], -r0	@ <UNPREDICTABLE>
 2a4:	00000090 			@ <UNDEFINED> instruction: 00000090
 2a8:	84100e41 			@ <UNDEFINED> instruction: 84100e41
 2ac:	86038504 			@ <UNDEFINED> instruction: 86038504
 2b0:	00018e02 			@ <UNDEFINED> instruction: 00018e02
 2b4:	0000000c 			@ <UNDEFINED> instruction: 0000000c
 2b8:	ffffffff 			@ <UNDEFINED> instruction: ffffffff
 2bc:	7c020001 			@ <UNDEFINED> instruction: 7c020001
 2c0:	000d0c0e 			@ <UNDEFINED> instruction: 000d0c0e
 2c4:	00000018 			@ <UNDEFINED> instruction: 00000018
 2c8:	000002b4 			@ <UNDEFINED> instruction: 000002b4
 2cc:	00000480 			@ <UNDEFINED> instruction: 00000480
 2d0:	00000044 			@ <UNDEFINED> instruction: 00000044
 2d4:	84100e41 			@ <UNDEFINED> instruction: 84100e41
 2d8:	86038504 			@ <UNDEFINED> instruction: 86038504
 2dc:	00018e02 			@ <UNDEFINED> instruction: 00018e02
 2e0:	00000020 			@ <UNDEFINED> instruction: 00000020
 2e4:	000002b4 			@ <UNDEFINED> instruction: 000002b4
 2e8:	000004c4 			@ <UNDEFINED> instruction: 000004c4
 2ec:	00000100 			@ <UNDEFINED> instruction: 00000100
 2f0:	80200e41 			@ <UNDEFINED> instruction: 80200e41
 2f4:	82078108 			@ <UNDEFINED> instruction: 82078108
 2f8:	85058406 			@ <UNDEFINED> instruction: 85058406
 2fc:	87038604 			@ <UNDEFINED> instruction: 87038604
 300:	00018e02 			@ <UNDEFINED> instruction: 00018e02
 304:	0000000c 			@ <UNDEFINED> instruction: 0000000c
 308:	ffffffff 			@ <UNDEFINED> instruction: ffffffff
 30c:	7c020001 			@ <UNDEFINED> instruction: 7c020001
 310:	000d0c0e 			@ <UNDEFINED> instruction: 000d0c0e
 314:	00000014 			@ <UNDEFINED> instruction: 00000014
 318:	00000304 			@ <UNDEFINED> instruction: 00000304
 31c:	000005c4 			@ <UNDEFINED> instruction: 000005c4
 320:	00000010 			@ <UNDEFINED> instruction: 00000010
 324:	84080e41 			@ <UNDEFINED> instruction: 84080e41
 328:	00018e02 			@ <UNDEFINED> instruction: 00018e02
 32c:	00000014 			@ <UNDEFINED> instruction: 00000014
 330:	00000304 			@ <UNDEFINED> instruction: 00000304
 334:	000005d4 	ldrdeq	r0, [r0], -r4
 338:	00000010 			@ <UNDEFINED> instruction: 00000010
 33c:	84080e41 			@ <UNDEFINED> instruction: 84080e41
 340:	00018e02 			@ <UNDEFINED> instruction: 00018e02
 344:	0000000c 			@ <UNDEFINED> instruction: 0000000c
 348:	ffffffff 			@ <UNDEFINED> instruction: ffffffff
 34c:	7c020001 			@ <UNDEFINED> instruction: 7c020001
 350:	000d0c0e 			@ <UNDEFINED> instruction: 000d0c0e
 354:	00000018 			@ <UNDEFINED> instruction: 00000018
 358:	00000344 			@ <UNDEFINED> instruction: 00000344
 35c:	000005e4 			@ <UNDEFINED> instruction: 000005e4
 360:	00000020 			@ <UNDEFINED> instruction: 00000020
 364:	84100e42 			@ <UNDEFINED> instruction: 84100e42
 368:	86038504 			@ <UNDEFINED> instruction: 86038504
 36c:	00018e02 			@ <UNDEFINED> instruction: 00018e02
 370:	0000000c 			@ <UNDEFINED> instruction: 0000000c
 374:	ffffffff 			@ <UNDEFINED> instruction: ffffffff
 378:	7c020001 			@ <UNDEFINED> instruction: 7c020001
 37c:	000d0c0e 			@ <UNDEFINED> instruction: 000d0c0e
 380:	00000014 			@ <UNDEFINED> instruction: 00000014
 384:	00000370 			@ <UNDEFINED> instruction: 00000370
 388:	00004d8c 			@ <UNDEFINED> instruction: 00004d8c
 38c:	00000014 			@ <UNDEFINED> instruction: 00000014
 390:	84080e41 			@ <UNDEFINED> instruction: 84080e41
 394:	00018e02 			@ <UNDEFINED> instruction: 00018e02
 398:	0000000c 			@ <UNDEFINED> instruction: 0000000c
 39c:	ffffffff 			@ <UNDEFINED> instruction: ffffffff
 3a0:	7c020001 			@ <UNDEFINED> instruction: 7c020001
 3a4:	000d0c0e 			@ <UNDEFINED> instruction: 000d0c0e
 3a8:	00000018 			@ <UNDEFINED> instruction: 00000018
 3ac:	00000398 			@ <UNDEFINED> instruction: 00000398
 3b0:	00004da0 			@ <UNDEFINED> instruction: 00004da0
 3b4:	00000054 			@ <UNDEFINED> instruction: 00000054
 3b8:	84100e42 			@ <UNDEFINED> instruction: 84100e42
 3bc:	86038504 			@ <UNDEFINED> instruction: 86038504
 3c0:	00018e02 			@ <UNDEFINED> instruction: 00018e02
 3c4:	0000000c 			@ <UNDEFINED> instruction: 0000000c
 3c8:	ffffffff 			@ <UNDEFINED> instruction: ffffffff
 3cc:	7c020001 			@ <UNDEFINED> instruction: 7c020001
 3d0:	000d0c0e 			@ <UNDEFINED> instruction: 000d0c0e
 3d4:	00000014 			@ <UNDEFINED> instruction: 00000014
 3d8:	000003c4 			@ <UNDEFINED> instruction: 000003c4
 3dc:	00004df4 	strdeq	r4, [r0], -r4	@ <UNPREDICTABLE>
 3e0:	00000014 			@ <UNDEFINED> instruction: 00000014
 3e4:	84080e41 			@ <UNDEFINED> instruction: 84080e41
 3e8:	00018e02 			@ <UNDEFINED> instruction: 00018e02
 3ec:	00000014 			@ <UNDEFINED> instruction: 00000014
 3f0:	000003c4 			@ <UNDEFINED> instruction: 000003c4
 3f4:	00004e08 			@ <UNDEFINED> instruction: 00004e08
 3f8:	00000014 			@ <UNDEFINED> instruction: 00000014
 3fc:	84080e41 			@ <UNDEFINED> instruction: 84080e41
 400:	00018e02 			@ <UNDEFINED> instruction: 00018e02
 404:	0000000c 			@ <UNDEFINED> instruction: 0000000c
 408:	ffffffff 			@ <UNDEFINED> instruction: ffffffff
 40c:	7c020001 			@ <UNDEFINED> instruction: 7c020001
 410:	000d0c0e 			@ <UNDEFINED> instruction: 000d0c0e
 414:	00000018 			@ <UNDEFINED> instruction: 00000018
 418:	00000404 			@ <UNDEFINED> instruction: 00000404
 41c:	00004e1c 			@ <UNDEFINED> instruction: 00004e1c
 420:	0000001c 			@ <UNDEFINED> instruction: 0000001c
 424:	840c0e41 			@ <UNDEFINED> instruction: 840c0e41
 428:	8e028503 			@ <UNDEFINED> instruction: 8e028503
 42c:	00000001 			@ <UNDEFINED> instruction: 00000001
 430:	0000000c 			@ <UNDEFINED> instruction: 0000000c
 434:	ffffffff 			@ <UNDEFINED> instruction: ffffffff
 438:	7c020001 			@ <UNDEFINED> instruction: 7c020001
 43c:	000d0c0e 			@ <UNDEFINED> instruction: 000d0c0e
 440:	00000014 			@ <UNDEFINED> instruction: 00000014
 444:	00000430 			@ <UNDEFINED> instruction: 00000430
 448:	00004e38 			@ <UNDEFINED> instruction: 00004e38
 44c:	00000012 			@ <UNDEFINED> instruction: 00000012
 450:	84080e42 			@ <UNDEFINED> instruction: 84080e42
 454:	00018e02 			@ <UNDEFINED> instruction: 00018e02
 458:	0000000c 			@ <UNDEFINED> instruction: 0000000c
 45c:	ffffffff 			@ <UNDEFINED> instruction: ffffffff
 460:	7c020001 			@ <UNDEFINED> instruction: 7c020001
 464:	000d0c0e 			@ <UNDEFINED> instruction: 000d0c0e
 468:	0000000c 			@ <UNDEFINED> instruction: 0000000c
 46c:	00000458 			@ <UNDEFINED> instruction: 00000458
 470:	00004e4c 			@ <UNDEFINED> instruction: 00004e4c
 474:	00000002 			@ <UNDEFINED> instruction: 00000002
